(lp0
(dp1
S'bad'
p2
(lp3
I26534
aI26535
aI26536
asS'good'
p4
(lp5
I26537
aI26538
asS'question'
p6
(lp7
I104
aI308
aI10
aI276136
aI542
aI7
aI16854
aI0
aI17238
asS'question_id'
p8
I2752
sa(dp9
g2
(lp10
I26539
aI26541
aI26542
aI26543
aI26544
aI26545
aI26546
aI26547
asg4
(lp11
I26540
asg6
(lp12
I104
aI228
aI30
aI108
aI185
aI55468
aI17
aI2
aI737
asg8
I2753
sa(dp13
g2
(lp14
I26549
aI26550
aI26551
aI26552
aI26553
aI26554
aI26555
aI26556
aI26557
aI26558
aI26559
aI26560
aI26561
aI26562
aI26563
aI26564
aI26565
aI26566
aI26567
asg4
(lp15
I26548
asg6
(lp16
I104
aI127
aI304457
aI10482
aI86163
aI478
aI1985
asg8
I2754
sa(dp17
g2
(lp18
I26617
aI26618
aI26619
aI26620
asg4
(lp19
I26616
asg6
(lp20
I78
aI4331
aI284
aI10
aI2
aI22245
asg8
I2759
sa(dp21
g2
(lp22
I26677
aI26678
aI26680
aI26681
aI26682
aI26683
aI26684
aI26685
aI26686
aI26687
aI26688
aI26689
aI26690
aI26691
aI26692
aI26693
aI26694
aI26695
aI26696
aI26697
asg4
(lp23
I26679
asg6
(lp24
I104
aI142
aI99
aI87
aI2054
aI7
aI2
aI31489
aI486
aI13944
asg8
I2765
sa(dp25
g2
(lp26
I26734
aI26735
aI26736
aI26737
aI26738
aI26739
aI26740
aI26741
aI26742
aI26743
aI26744
asg4
(lp27
I26745
asg6
(lp28
I104
aI142
aI12818
aI3377
aI507
aI23
aI83
asg8
I2768
sa(dp29
g2
(lp30
I26775
aI26776
aI26777
aI26778
aI26779
aI26780
aI26781
aI26782
aI26783
aI26784
aI26785
aI26786
aI26787
aI26788
aI26789
aI26790
aI26791
aI26792
aI26793
asg4
(lp31
I26774
asg6
(lp32
I104
aI142
aI13105
aI10
aI84950
aI316
aI29
aI2
aI2095
aI37
asg8
I2771
sa(dp33
g2
(lp34
I26828
aI26830
aI26831
aI26832
aI26833
aI26834
aI26835
asg4
(lp35
I26829
asg6
(lp36
I78
aI1427
aI17
aI2
aI5415
aI281
aI2
aI906
aI5
aI964
aI2007
aI52519
aI37
asg8
I2776
sa(dp37
g2
(lp38
I26845
aI26846
aI26847
aI26848
aI26849
aI26850
aI26852
aI26853
aI26854
aI26855
aI26856
aI26857
aI26858
aI26859
aI26860
aI26861
aI26862
aI26863
aI26864
aI26865
aI26866
asg4
(lp39
I26851
asg6
(lp40
I78
aI154
aI2
aI1827
aI5803
aI47
asg8
I2778
sa(dp41
g2
(lp42
I26916
aI26917
aI26918
aI26919
aI26921
aI26922
aI26923
aI26924
aI26925
aI26926
aI26927
aI26928
aI26929
aI26930
aI26931
aI26932
aI26933
aI26934
aI26935
aI26936
aI26937
aI26938
asg4
(lp43
I26920
asg6
(lp44
I104
aI142
aI1374
aI19755
aI23
aI17
aI2248
asg8
I2783
sa(dp45
g2
(lp46
I26973
aI26976
aI26977
aI26978
aI26979
aI26980
asg4
(lp47
I26974
aI26975
asg6
(lp48
I78
aI154
aI6
aI271115
aI1315
aI615
asg8
I2789
sa(dp49
g2
(lp50
I26982
aI26983
aI26984
aI26985
aI26986
aI26987
aI26988
aI26989
aI26990
aI26991
aI26992
aI26993
aI26994
aI26995
aI26996
asg4
(lp51
I26981
asg6
(lp52
I78
aI154
aI5643
aI28
aI6
aI755
aI5
aI655
aI615
asg8
I2790
sa(dp53
g2
(lp54
I27037
aI27038
asg4
(lp55
I27036
asg6
(lp56
I78
aI2418
aI10
aI33354
aI16612
aI20614
aI7
aI37
asg8
I2795
sa(dp57
g2
(lp58
I27041
aI27042
aI27043
aI27045
aI27046
aI27047
aI27048
aI27049
aI27050
aI27051
asg4
(lp59
I27039
aI27040
aI27044
asg6
(lp60
I78
aI2041
aI5169
asg8
I2796
sa(dp61
g2
(lp62
I27066
aI27067
asg4
(lp63
I27068
asg6
(lp64
I78
aI522
aI5
aI4632
aI127
aI10251
aI372644
aI895
asg8
I2798
sa(dp65
g2
(lp66
I27070
asg4
(lp67
I27069
asg6
(lp68
I1614
aI1427
aI112162
aI25263
asg8
I2799
sa(dp69
g2
(lp70
I27187
aI27188
asg4
(lp71
I27186
asg6
(lp72
I78
aI1524
aI10
aI1157206
aI17
asg8
I2809
sa(dp73
g2
(lp74
I27189
aI27191
aI27192
aI27193
asg4
(lp75
I27190
asg6
(lp76
I104
aI290
aI3
aI206397
aI23
aI183
asg8
I2810
sa(dp77
g2
(lp78
I27240
aI27241
aI27242
aI27243
aI27244
aI27245
aI27246
asg4
(lp79
I27239
asg6
(lp80
I78
aI13803
aI1821
aI15365
asg8
I2815
sa(dp81
g2
(lp82
I27292
aI27293
aI27294
aI27295
aI27297
aI27298
asg4
(lp83
I27296
asg6
(lp84
I104
aI127
aI15078
aI19661
aI2086
aI37
asg8
I2820
sa(dp85
g2
(lp86
I27345
aI27347
aI27348
aI27349
aI27350
aI27351
aI27352
aI27353
aI27354
aI27355
aI27356
aI27357
aI27358
asg4
(lp87
I27346
asg6
(lp88
I104
aI647
aI31718
aI4433
asg8
I2826
sa(dp89
g2
(lp90
I27421
aI27422
aI27423
aI27424
asg4
(lp91
I27425
asg6
(lp92
I78
aI1427
aI4
aI8062
aI2
aI152782
aI70880
aI3815
aI633
asg8
I2834
sa(dp93
g2
(lp94
I27449
aI27450
aI27451
aI27452
aI27453
aI27454
aI27455
aI27456
aI27457
aI27458
aI27459
aI27460
asg4
(lp95
I27448
asg6
(lp96
I78
aI522
aI5
aI304
aI10
aI12015
aI37
asg8
I2838
sa(dp97
g2
(lp98
I27469
aI27470
aI27472
aI27473
aI27474
aI27475
aI27476
asg4
(lp99
I27471
asg6
(lp100
I78
aI311
aI799
aI10
aI29745
asg8
I2840
sa(dp101
g2
(lp102
I27516
asg4
(lp103
I27515
asg6
(lp104
I78
aI23
aI1132
aI11
aI8268
asg8
I2846
sa(dp105
g2
(lp106
I27530
aI27531
aI27532
aI27533
aI27534
aI27535
aI27536
aI27537
aI27538
aI27539
asg4
(lp107
I27529
asg6
(lp108
I78
aI20060
aI73
aI29
aI18
aI1191
asg8
I2848
sa(dp109
g2
(lp110
I27564
aI27565
aI27566
aI27568
aI27569
aI27570
aI27571
aI27572
aI27573
aI27574
asg4
(lp111
I27567
asg6
(lp112
I78
aI20573
aI16607
aI2
aI43468
aI34702
asg8
I2853
sa(dp113
g2
(lp114
I27578
aI27579
aI27581
aI27582
aI27583
aI27584
aI27585
aI27586
aI27587
aI27588
aI27589
aI27590
aI27591
aI27592
aI27593
aI27594
aI27595
aI27596
aI27597
aI27598
aI27599
asg4
(lp115
I27580
asg6
(lp116
I78
aI4268
aI5
aI2
aI765
aI443
aI10
aI333
asg8
I2855
sa(dp117
g2
(lp118
I27627
aI27628
aI27630
aI27631
aI27632
aI27633
aI27634
aI27635
aI27636
aI27637
aI27638
aI27639
aI27640
aI27641
aI27642
aI27643
aI27644
aI27645
asg4
(lp119
I27629
asg6
(lp120
I78
aI226
aI5
aI2
aI1563430
aI1129
aI66
aI2828
aI1343
aI30
aI2
aI122
aI5422
aI37
asg8
I2859
sa(dp121
g2
(lp122
I27649
aI27650
aI27652
aI27653
aI27654
aI27655
aI27656
aI27657
aI27658
aI27659
aI27660
asg4
(lp123
I27651
asg6
(lp124
I78
aI23
aI2
aI277
aI2000
aI1977
aI7
aI2
aI158185
aI866
aI885
asg8
I2861
sa(dp125
g2
(lp126
I27662
aI27663
asg4
(lp127
I27661
asg6
(lp128
I78
aI10
aI202
aI6124
aI24643
aI9320
asg8
I2862
sa(dp129
g2
(lp130
I27664
aI27665
aI27666
aI27668
aI27669
aI27670
aI27671
asg4
(lp131
I27667
asg6
(lp132
I78
aI23
aI2
aI1421
aI11
aI52921
asg8
I2863
sa(dp133
g2
(lp134
I27672
aI27673
aI27675
aI27676
aI27677
aI27678
asg4
(lp135
I27674
asg6
(lp136
I78
aI23
aI11213
aI15180
aI11
asg8
I2864
sa(dp137
g2
(lp138
I27750
aI27751
aI27752
aI27753
aI27754
aI27755
aI27756
aI27757
aI27758
aI27759
aI27760
aI27761
aI27762
aI27763
aI27764
aI27765
aI27766
aI27767
aI27768
aI27769
asg4
(lp139
I27749
asg6
(lp140
I78
aI152
aI30
aI54008
aI1189
asg8
I2873
sa(dp141
g2
(lp142
I27770
aI27771
aI27773
aI27774
aI27775
aI27776
aI27777
aI27778
aI27779
aI27780
aI27781
aI27782
aI27783
aI27784
aI27785
aI27786
aI27787
aI27788
aI27789
aI27790
aI27791
aI27792
aI27793
aI27794
aI27795
aI27796
aI27797
aI27798
aI27799
asg4
(lp143
I27772
asg6
(lp144
I78
aI23
aI2
aI144368
aI6851
asg8
I2874
sa(dp145
g2
(lp146
I27822
aI27823
aI27824
aI27825
aI27826
asg4
(lp147
I27821
asg6
(lp148
I78
aI2
aI3865
aI17
aI15574
asg8
I2876
sa(dp149
g2
(lp150
I27827
aI27829
aI27830
aI27831
aI27832
aI27833
aI27834
aI27835
aI27836
aI27837
aI27838
asg4
(lp151
I27828
asg6
(lp152
I78
aI3175
aI10
aI85473
aI46158
asg8
I2877
sa(dp153
g2
(lp154
I27840
aI27842
aI27843
asg4
(lp155
I27839
aI27841
asg6
(lp156
I78
aI23
aI93956
aI7
aI6178
asg8
I2878
sa(dp157
g2
(lp158
I27924
aI27926
aI27927
aI27928
aI27929
asg4
(lp159
I27925
asg6
(lp160
I78
aI226
aI5
aI2
aI2077
aI23
aI57697
asg8
I2886
sa(dp161
g2
(lp162
I27977
aI27978
aI27979
aI27980
aI27981
aI27982
aI27983
aI27984
aI27985
asg4
(lp163
I27986
asg6
(lp164
I78
aI3416
aI154
aI6
aI1321
aI62601
aI93231
asg8
I2893
sa(dp165
g2
(lp166
I28004
aI28007
aI28008
aI28009
aI28010
aI28011
aI28012
aI28013
aI28014
aI28015
asg4
(lp167
I28005
aI28006
asg6
(lp168
I78
aI23
aI2
aI122
aI580
aI1628
aI7
aI10957
asg8
I2896
sa(dp169
g2
(lp170
I28017
aI28018
aI28019
aI28020
aI28021
asg4
(lp171
I28016
asg6
(lp172
I78
aI10
aI39
aI8062
aI1435055
aI37
asg8
I2897
sa(dp173
g2
(lp174
I28031
aI28032
aI28033
aI28034
aI28035
aI28036
aI28037
aI28038
aI28039
aI28040
aI28041
aI28042
aI28043
aI28044
aI28045
aI28046
aI28047
aI28048
asg4
(lp175
I28030
asg6
(lp176
I78
aI152
aI127
aI10251
aI45135
aI478
aI1663
aI37
asg8
I2899
sa(dp177
g2
(lp178
I28082
aI28083
aI28084
aI28085
aI28086
aI28087
aI28088
aI28089
asg4
(lp179
I28081
asg6
(lp180
I78
aI10
aI116
aI74925
asg8
I2902
sa(dp181
g2
(lp182
I28122
aI28124
aI28125
aI28126
aI28127
aI28128
aI28129
aI28130
aI28131
aI28132
aI28133
asg4
(lp183
I28123
asg6
(lp184
I78
aI10
aI6
aI9836
aI2685
asg8
I2905
sa(dp185
g2
(lp186
I28183
aI28184
aI28185
aI28186
aI28187
aI28188
aI28189
aI28190
aI28191
asg4
(lp187
I28182
asg6
(lp188
I78
aI5599
aI23
aI17
aI207260
aI4659
asg8
I2913
sa(dp189
g2
(lp190
I28223
aI28224
aI28225
aI28226
aI28227
aI28228
aI28229
aI28230
aI28231
aI28232
aI28233
aI28234
aI28235
asg4
(lp191
I28236
asg6
(lp192
I78
aI543
aI10
aI85607
aI17
asg8
I2917
sa(dp193
g2
(lp194
I28238
aI28239
aI28240
aI28241
aI28242
aI28243
asg4
(lp195
I28237
asg6
(lp196
I78
aI23
aI3244
aI1233
aI5
aI1464
aI37
asg8
I2918
sa(dp197
g2
(lp198
I28266
aI28267
aI28268
aI28269
aI28270
aI28271
aI28272
aI28273
asg4
(lp199
I28265
asg6
(lp200
I78
aI522
aI5
aI99
aI23
aI17
aI2
aI282
aI14911
asg8
I2922
sa(dp201
g2
(lp202
I28275
aI28276
aI28277
aI28278
asg4
(lp203
I28274
asg6
(lp204
I78
aI24691
aI10
aI75803
aI268429
asg8
I2923
sa(dp205
g2
(lp206
sg4
(lp207
I28279
asg6
(lp208
I78
aI23
aI2
aI8528
aI5
aI2
aI28168
aI6518
asg8
I2924
sa(dp209
g2
(lp210
I28280
aI28281
aI28282
aI28284
aI28285
aI28286
aI28287
aI28288
aI28289
aI28290
asg4
(lp211
I28283
asg6
(lp212
I78
aI77
aI38
aI2
aI207
aI283
aI17
aI119
aI506
asg8
I2925
sa(dp213
g2
(lp214
I28338
aI28339
aI28340
aI28341
aI28342
aI28343
aI28344
aI28345
aI28346
asg4
(lp215
I28337
asg6
(lp216
I78
aI364
aI10
aI54433
aI7
asg8
I2932
sa(dp217
g2
(lp218
I28348
asg4
(lp219
I28347
asg6
(lp220
I78
aI23
aI209312
asg8
I2933
sa(dp221
g2
(lp222
I28349
aI28350
aI28351
aI28352
aI28354
aI28355
aI28356
aI28357
aI28358
aI28359
aI28360
aI28361
aI28362
aI28363
aI28364
aI28365
aI28366
aI28367
aI28368
asg4
(lp223
I28353
asg6
(lp224
I78
aI23
aI2
aI2760
aI317
aI73661
aI39177
asg8
I2934
sa(dp225
g2
(lp226
I28411
aI28412
aI28413
aI28414
aI28415
aI28418
asg4
(lp227
I28416
aI28417
asg6
(lp228
I78
aI23
aI20236
aI20
aI8980
asg8
I2937
sa(dp229
g2
(lp230
I28419
asg4
(lp231
I28420
asg6
(lp232
I78
aI23
aI86054
aI4752
asg8
I2938
sa(dp233
g2
(lp234
I28442
asg4
(lp235
I28441
asg6
(lp236
I78
aI10
aI2
aI3590
aI288
aI5
aI2
aI7387
aI14069
aI96483
aI37
asg8
I2940
sa(dp237
g2
(lp238
I28444
aI28445
aI28446
aI28447
asg4
(lp239
I28443
asg6
(lp240
I78
aI30
aI2
aI265908
aI4711
asg8
I2941
sa(dp241
g2
(lp242
I28543
aI28544
aI28545
asg4
(lp243
I28541
aI28542
asg6
(lp244
I78
aI10
aI2
aI8349
aI1488
aI5
aI140
aI9651
asg8
I2954
sa(dp245
g2
(lp246
I28623
aI28625
aI28626
aI28627
aI28628
aI28629
aI28630
aI28631
aI28632
aI28633
aI28634
aI28635
aI28636
aI28637
aI28638
aI28639
aI28640
aI28641
asg4
(lp247
I28624
asg6
(lp248
I78
aI30
aI2
aI348979
aI183
aI11
asg8
I2967
sa(dp249
g2
(lp250
I28643
aI28644
aI28645
aI28646
aI28647
aI28648
asg4
(lp251
I28642
asg6
(lp252
I78
aI10
aI109116
aI8803
aI19544
asg8
I2968
sa(dp253
g2
(lp254
sg4
(lp255
I28655
asg6
(lp256
I78
aI10
aI2
aI3203
aI5
aI6
aI8092
aI7333
asg8
I2970
sa(dp257
g2
(lp258
I28667
asg4
(lp259
I28666
asg6
(lp260
I78
aI10
aI133652
aI2234
asg8
I2973
sa(dp261
g2
(lp262
I28723
aI28725
aI28726
aI28727
asg4
(lp263
I28724
asg6
(lp264
I78
aI30
aI2
aI33280
aI725
aI7
aI218557
aI25379
aI416
aI182
aI1
asg8
I2980
sa(dp265
g2
(lp266
I28758
aI28760
aI28761
aI28762
aI28763
aI28764
aI28765
aI28766
aI28767
aI28768
asg4
(lp267
I28759
asg6
(lp268
I78
aI10
aI612
aI146
aI52
asg8
I2986
sa(dp269
g2
(lp270
I28773
aI28774
aI28775
aI28776
aI28778
aI28779
aI28780
aI28781
aI28782
aI28783
aI28784
aI28785
asg4
(lp271
I28777
asg6
(lp272
I78
aI10
aI2
aI1324
aI5
aI64668
aI37
asg8
I2988
sa(dp273
g2
(lp274
sg4
(lp275
I28810
asg6
(lp276
I78
aI10
aI2874
aI47566
aI48284
asg8
I2991
sa(dp277
g2
(lp278
I28859
aI28860
aI28861
asg4
(lp279
I28858
asg6
(lp280
I78
aI10
aI12317
aI3665
aI1642
asg8
I2995
sa(dp281
g2
(lp282
I28862
aI28863
aI28865
aI28866
aI28867
aI28868
aI28869
aI28870
aI28871
aI28872
aI28873
aI28874
aI28875
aI28876
aI28877
asg4
(lp283
I28864
asg6
(lp284
I78
aI30
aI7970
aI564390
aI20
aI2336
aI7
aI2
aI2986
aI8062
aI97257
aI4784
aI70880
asg8
I2996
sa(dp285
g2
(lp286
I28879
aI28880
aI28881
asg4
(lp287
I28878
asg6
(lp288
I78
aI10
aI21708
aI13076
aI5
aI785
aI64
asg8
I2997
sa(dp289
g2
(lp290
I28883
aI28884
aI28885
aI28886
aI28887
aI28888
asg4
(lp291
I28882
asg6
(lp292
I78
aI10
aI19703
aI183
aI11
asg8
I2998
sa(dp293
g2
(lp294
I28974
aI28975
aI28976
asg4
(lp295
I28973
asg6
(lp296
I78
aI10
aI170531
aI12963
asg8
I3011
sa(dp297
g2
(lp298
I29016
aI29017
aI29018
aI29019
aI29020
aI29021
aI29022
aI29023
aI29024
aI29025
aI29026
aI29027
asg4
(lp299
I29015
asg6
(lp300
I78
aI10
aI2
aI1309
aI235
aI12111
aI125164
aI3689
aI3
aI125164
aI3689
asg8
I3016
sa(dp301
g2
(lp302
I29042
aI29043
aI29044
aI29046
aI29048
aI29049
asg4
(lp303
I29045
aI29047
asg6
(lp304
I78
aI10
aI21931
aI171
aI5
asg8
I3019
sa(dp305
g2
(lp306
I29068
aI29069
aI29070
asg4
(lp307
I29067
asg6
(lp308
I78
aI10
aI2
aI2
aI2361
aI6643
aI195
aI1478
aI2442
aI37
asg8
I3022
sa(dp309
g2
(lp310
I29126
aI29127
aI29128
aI29129
aI29130
asg4
(lp311
I29125
asg6
(lp312
I78
aI10
aI171974
asg8
I3032
sa(dp313
g2
(lp314
I29132
aI29133
aI29134
aI29135
asg4
(lp315
I29131
asg6
(lp316
I78
aI10
aI92254
aI848
asg8
I3033
sa(dp317
g2
(lp318
I29149
aI29150
aI29152
aI29153
aI29154
aI29155
asg4
(lp319
I29151
asg6
(lp320
I78
aI10
aI277
aI3879
aI3840
asg8
I3036
sa(dp321
g2
(lp322
I29175
aI29176
aI29177
aI29178
aI29179
aI29180
aI29181
aI29182
aI29183
aI29184
aI29185
aI29186
asg4
(lp323
I29174
asg6
(lp324
I78
aI10
aI1515
aI1055
aI1524
asg8
I3038
sa(dp325
g2
(lp326
I29188
aI29189
aI29190
aI29191
asg4
(lp327
I29187
asg6
(lp328
I78
aI10
aI16815
aI20
aI3669
aI7886
asg8
I3039
sa(dp329
g2
(lp330
I29192
aI29193
aI29195
asg4
(lp331
I29194
asg6
(lp332
I78
aI10
aI2
aI288
aI5
aI2
aI284
aI74
aI210
aI2
aI305832
aI21922
aI7
aI20614
asg8
I3040
sa(dp333
g2
(lp334
I29210
aI29211
aI29212
aI29213
aI29214
aI29215
asg4
(lp335
I29209
asg6
(lp336
I78
aI10
aI2
aI288
aI5
aI15573
aI121147
aI20
aI1170
aI37
asg8
I3043
sa(dp337
g2
(lp338
I27505
aI27507
asg4
(lp339
I27506
asg6
(lp340
I25807
aI11774
aI2
aI644
aI244
aI3824
aI448
asg8
I2844
sa(dp341
g2
(lp342
I27517
aI27518
aI27520
aI27521
aI27522
aI27523
aI27524
aI27525
aI27526
aI27527
aI27528
asg4
(lp343
I27519
asg6
(lp344
I25807
aI2890
aI133362
aI2
aI3929
asg8
I2847
sa(dp345
g2
(lp346
I27576
aI27577
asg4
(lp347
I27575
asg6
(lp348
I25807
aI10861
aI2456
aI20830
asg8
I2854
sa(dp349
g2
(lp350
I27739
asg4
(lp351
I27738
asg6
(lp352
I25807
aI11774
aI1333
aI24
aI73
asg8
I2871
sa(dp353
g2
(lp354
I27844
aI27846
aI27847
aI27848
aI27849
aI27850
aI27851
aI27852
aI27853
aI27854
aI27855
asg4
(lp355
I27845
asg6
(lp356
I25807
aI1332
aI2
aI2257
aI7
aI986627
asg8
I2879
sa(dp357
g2
(lp358
I27913
aI27914
aI27915
aI27916
aI27917
aI27918
aI27919
aI27921
aI27922
aI27923
asg4
(lp359
I27920
asg6
(lp360
I25807
aI1332
aI2
aI181
aI207
aI2289
asg8
I2885
sa(dp361
g2
(lp362
I27971
aI27972
aI27974
aI27975
aI27976
asg4
(lp363
I27973
asg6
(lp364
I25807
aI19145
aI7
aI2
aI734
aI606
aI27770
asg8
I2892
sa(dp365
g2
(lp366
I28134
aI28135
aI28136
aI28137
aI28139
asg4
(lp367
I28138
asg6
(lp368
I25807
aI2049
aI289532
aI7
aI22258
aI24113
aI202
asg8
I2906
sa(dp369
g2
(lp370
I28244
aI28245
aI28246
aI28247
aI28248
aI28249
aI28251
asg4
(lp371
I28250
asg6
(lp372
I25807
aI1332
aI2
aI2020
aI207
aI2289
asg8
I2919
sa(dp373
g2
(lp374
I28297
aI28299
aI28301
asg4
(lp375
I28298
aI28300
asg6
(lp376
I25807
aI399
aI16114
aI16761
asg8
I2927
sa(dp377
g2
(lp378
I28669
aI28670
aI28671
aI28672
aI28673
aI28674
aI28675
asg4
(lp379
I28668
asg6
(lp380
I25807
aI10
aI61038
aI98686
aI17
aI308
aI77
aI5451
asg8
I2974
sa(dp381
g2
(lp382
I28740
aI28741
aI28742
aI28743
aI28744
aI28745
asg4
(lp383
I28739
asg6
(lp384
I25807
aI30
aI7
aI2
aI603
aI108
aI16665
aI19
aI69355
aI649225
asg8
I2983
sa(dp385
g2
(lp386
I28978
aI28979
aI28980
aI28981
asg4
(lp387
I28977
asg6
(lp388
I25807
aI10
aI2
aI1520
aI5
aI1974
aI7943
aI7
aI41667
asg8
I3012
sa(dp389
g2
(lp390
I29156
aI29157
aI29158
aI29159
aI29160
aI29161
aI29162
aI29164
aI29165
aI29166
aI29167
aI29168
aI29169
aI29170
aI29171
aI29172
aI29173
asg4
(lp391
I29163
asg6
(lp392
I25807
aI10
aI2
aI2093
aI6343
aI33064
aI982
asg8
I3037
sa(dp393
g2
(lp394
I29196
aI29198
asg4
(lp395
I29197
asg6
(lp396
I25807
aI30
aI2
aI32059
aI74
aI30
aI2381
aI19
aI39
aI11221
aI7
aI16525
asg8
I3041
sa(dp397
g2
(lp398
I27541
aI27542
aI27543
aI27544
aI27545
aI27546
aI27547
aI27548
aI27549
aI27550
aI27551
asg4
(lp399
I27540
asg6
(lp400
I7249
aI127
aI92374
aI15574
aI2086
asg8
I2849
sa(dp401
g2
(lp402
I27679
aI27680
aI27681
aI27682
aI27683
aI27684
aI27685
aI27686
aI27687
aI27688
aI27689
aI27690
aI27691
aI27693
aI27694
aI27695
aI27696
aI27697
asg4
(lp403
I27692
asg6
(lp404
I7249
aI127
aI2
aI33407
aI1129
aI176
aI246
asg8
I2865
sa(dp405
g2
(lp406
I27728
aI27729
aI27730
aI27731
aI27732
asg4
(lp407
I27727
asg6
(lp408
I7249
aI127
aI2
aI195
aI171974
aI678
aI349
aI37
asg8
I2869
sa(dp409
g2
(lp410
I27733
aI27735
aI27736
aI27737
asg4
(lp411
I27734
asg6
(lp412
I7249
aI127
aI50674
aI191642
aI330
aI11
aI5245
aI3
aI11302
asg8
I2870
sa(dp413
g2
(lp414
I28093
aI28094
aI28095
aI28096
aI28097
aI28098
aI28099
aI28100
aI28101
aI28102
aI28103
aI28104
aI28105
aI28106
aI28107
aI28108
aI28109
aI28110
aI28111
aI28112
aI28113
aI28114
aI28116
aI28117
aI28118
aI28119
aI28120
aI28121
asg4
(lp415
I28092
aI28115
asg6
(lp416
I7249
aI127
aI20741
aI15756
aI1484
aI37
asg8
I2904
sa(dp417
g2
(lp418
I28151
aI28152
aI28153
aI28154
aI28155
aI28156
aI28157
aI28158
aI28159
aI28160
aI28161
aI28162
aI28163
aI28164
aI28165
aI28166
aI28167
aI28168
aI28169
aI28170
aI28171
asg4
(lp419
I28150
asg6
(lp420
I7249
aI127
aI21633
aI987284
aI2086
asg8
I2910
sa(dp421
g2
(lp422
I28210
aI28211
aI28212
aI28213
aI28214
aI28215
aI28216
aI28217
aI28218
asg4
(lp423
I28209
asg6
(lp424
I7249
aI127
aI25060
aI53436
aI248
aI56
asg8
I2915
sa(dp425
g2
(lp426
I28455
aI28456
aI28458
asg4
(lp427
I28457
asg6
(lp428
I7249
aI30
aI2
aI497
aI10136
asg8
I2943
sa(dp429
g2
(lp430
I28502
aI28503
asg4
(lp431
I28501
asg6
(lp432
I7249
aI30
aI423352
aI17621
aI17
aI14546
asg8
I2951
sa(dp433
g2
(lp434
I28841
aI28842
aI28843
aI28844
aI28845
aI28846
aI28847
aI28848
aI28849
aI28850
aI28851
aI28852
aI28853
aI28854
aI28855
aI28856
aI28857
asg4
(lp435
I28840
asg6
(lp436
I7249
aI30
aI12102
aI15679
aI32676
asg8
I2994
sa(dp437
g2
(lp438
I29071
aI29072
aI29073
aI29074
aI29075
asg4
(lp439
I29076
asg6
(lp440
I7249
aI30
aI5309
aI8240
aI2888
asg8
I3023
sa(dp441
g2
(lp442
I27505
aI27507
asg4
(lp443
I27506
asg6
(lp444
I14123
aI11774
aI2
aI644
aI244
aI3824
aI448
asg8
I2844
sa(dp445
g2
(lp446
I27517
aI27518
aI27520
aI27521
aI27522
aI27523
aI27524
aI27525
aI27526
aI27527
aI27528
asg4
(lp447
I27519
asg6
(lp448
I14123
aI2890
aI133362
aI2
aI3929
asg8
I2847
sa(dp449
g2
(lp450
I27576
aI27577
asg4
(lp451
I27575
asg6
(lp452
I14123
aI10861
aI2456
aI20830
asg8
I2854
sa(dp453
g2
(lp454
I27739
asg4
(lp455
I27738
asg6
(lp456
I14123
aI11774
aI1333
aI24
aI73
asg8
I2871
sa(dp457
g2
(lp458
I27844
aI27846
aI27847
aI27848
aI27849
aI27850
aI27851
aI27852
aI27853
aI27854
aI27855
asg4
(lp459
I27845
asg6
(lp460
I14123
aI1332
aI2
aI2257
aI7
aI986627
asg8
I2879
sa(dp461
g2
(lp462
I27913
aI27914
aI27915
aI27916
aI27917
aI27918
aI27919
aI27921
aI27922
aI27923
asg4
(lp463
I27920
asg6
(lp464
I14123
aI1332
aI2
aI181
aI207
aI2289
asg8
I2885
sa(dp465
g2
(lp466
I27971
aI27972
aI27974
aI27975
aI27976
asg4
(lp467
I27973
asg6
(lp468
I14123
aI19145
aI7
aI2
aI734
aI606
aI27770
asg8
I2892
sa(dp469
g2
(lp470
I28134
aI28135
aI28136
aI28137
aI28139
asg4
(lp471
I28138
asg6
(lp472
I14123
aI2049
aI289532
aI7
aI22258
aI24113
aI202
asg8
I2906
sa(dp473
g2
(lp474
I28244
aI28245
aI28246
aI28247
aI28248
aI28249
aI28251
asg4
(lp475
I28250
asg6
(lp476
I14123
aI1332
aI2
aI2020
aI207
aI2289
asg8
I2919
sa(dp477
g2
(lp478
I28297
aI28299
aI28301
asg4
(lp479
I28298
aI28300
asg6
(lp480
I14123
aI399
aI16114
aI16761
asg8
I2927
sa(dp481
g2
(lp482
I28669
aI28670
aI28671
aI28672
aI28673
aI28674
aI28675
asg4
(lp483
I28668
asg6
(lp484
I14123
aI10
aI61038
aI98686
aI17
aI308
aI77
aI5451
asg8
I2974
sa(dp485
g2
(lp486
I28740
aI28741
aI28742
aI28743
aI28744
aI28745
asg4
(lp487
I28739
asg6
(lp488
I14123
aI30
aI7
aI2
aI603
aI108
aI16665
aI19
aI69355
aI649225
asg8
I2983
sa(dp489
g2
(lp490
I28978
aI28979
aI28980
aI28981
asg4
(lp491
I28977
asg6
(lp492
I14123
aI10
aI2
aI1520
aI5
aI1974
aI7943
aI7
aI41667
asg8
I3012
sa(dp493
g2
(lp494
I29156
aI29157
aI29158
aI29159
aI29160
aI29161
aI29162
aI29164
aI29165
aI29166
aI29167
aI29168
aI29169
aI29170
aI29171
aI29172
aI29173
asg4
(lp495
I29163
asg6
(lp496
I14123
aI10
aI2
aI2093
aI6343
aI33064
aI982
asg8
I3037
sa(dp497
g2
(lp498
I29196
aI29198
asg4
(lp499
I29197
asg6
(lp500
I14123
aI30
aI2
aI32059
aI74
aI30
aI2381
aI19
aI39
aI11221
aI7
aI16525
asg8
I3041
sa.