(lp0
(dp1
S'bad'
p2
(lp3
I24043
aI24044
aI24045
asS'good'
p4
(lp5
I24046
aI24047
asS'question'
p6
(lp7
I4481
aI682
aI11
aI34205
aI2676
aI41
aI5542
aI64
aI14791
asS'question_id'
p8
I26089
sa(dp9
g2
(lp10
I24048
aI24050
aI24051
aI24052
aI24053
aI24054
aI24055
aI24056
asg4
(lp11
I24049
asg6
(lp12
I856
aI1
aI133
aI134
aI76
aI135
aI1
aI136
aI50
aI1
aI62
aI63
aI327
aI11
aI411
aI1336
aI14710
aI19
aI1
aI1616
asg8
I26094
sa(dp13
g2
(lp14
I15223
aI15224
aI15225
aI15226
aI15227
aI15228
aI15229
aI15230
aI15231
aI15232
aI15233
aI15234
aI15235
aI15236
aI15237
aI15238
aI15239
aI15240
aI15241
asg4
(lp15
I15222
asg6
(lp16
I368
aI2230
aI1864
aI38
aI3182
aI195
aI26690
aI244
aI34216
aI856
aI1527
asg8
I26103
sa(dp17
g2
(lp18
I24085
aI24086
aI24087
aI24088
asg4
(lp19
I24084
asg6
(lp20
I4524
aI1
aI6675
aI501
aI401
aI50
aI1323
aI4526
aI3415
aI1689
aI11
aI1
aI31192
asg8
I26170
sa(dp21
g2
(lp22
I24144
aI24145
aI24147
aI24148
aI24149
aI24150
aI24151
aI24152
aI24153
aI24154
aI24155
aI24156
aI24157
aI24158
aI24159
aI24160
aI24161
aI24162
aI24163
aI24164
asg4
(lp23
I24146
asg6
(lp24
I2
aI3
aI4
aI5
aI6
aI7
aI8
aI9
aI433
aI531
aI11
aI1018
aI41
aI1
aI3653
aI1840
aI3776
asg8
I26228
sa(dp25
g2
(lp26
I24201
aI24202
aI24203
aI24204
aI24205
aI24206
aI24207
aI24208
aI24209
aI24210
aI24211
asg4
(lp27
I24212
asg6
(lp28
I451
aI452
aI453
aI376
aI43
aI454
aI64
aI455
aI64
aI38
aI456
aI11
aI457
aI433
aI3798
aI2455
aI930
aI11
aI585
asg8
I26282
sa(dp29
g2
(lp30
I24242
aI24243
aI24244
aI24245
aI24246
aI24247
aI24248
aI24249
aI24250
aI24251
aI24252
aI24253
aI24254
aI24255
aI24256
aI24257
aI24258
aI24259
aI24260
asg4
(lp31
I24241
asg6
(lp32
I1
aI823
aI64
aI150
aI11
aI76
aI824
aI825
aI826
aI41
aI139
aI64
aI11
aI1
aI827
aI51
aI11
aI828
aI829
aI38
aI11
aI75
aI830
aI59
aI831
aI38
aI651
aI433
aI1565
aI11
aI11066
aI2865
aI184
aI1
aI2536
aI15
asg8
I26322
sa(dp33
g2
(lp34
I24295
aI24297
aI24298
aI24299
aI24300
aI24301
aI24302
asg4
(lp35
I24296
asg6
(lp36
I16
aI2238
aI51
aI123
aI75
aI16
aI6209
aI38
aI3367
aI32
aI3
aI6210
aI52
aI6211
aI69
aI64
aI184
aI1
aI6209
aI170
aI6212
aI9
aI51
aI5343
aI1
aI6213
aI76
aI923
aI156
aI1
aI6214
aI2173
aI19
aI1
aI866
aI1364
aI1
aI969
aI50
aI440
aI2816
aI10260
aI15
asg8
I26374
sa(dp37
g2
(lp38
I24303
aI24304
aI24305
aI24306
aI24307
aI24308
aI24310
aI24311
aI24312
aI24313
aI24314
aI24315
aI24316
aI24317
aI24318
aI24319
aI24320
aI24321
aI24322
aI24323
aI24324
asg4
(lp39
I24309
asg6
(lp40
I184
aI5163
aI5164
aI5165
aI64
aI52
aI5166
aI50
aI5167
aI69
aI288
aI5168
aI312
aI5169
aI3321
aI64
aI364
aI115
aI43
aI5162
aI1
aI4728
aI3
aI5170
aI9
aI38
aI5171
aI5172
aI64
aI11
aI222
aI50
aI5173
aI38
aI5174
aI5175
aI41
aI2837
aI5176
aI3
aI2609
aI5177
aI9
aI184
aI733
aI5178
aI312
aI5169
aI3321
aI195
aI1
aI328
aI1070
aI195
asg8
I26391
sa(dp41
g2
(lp42
I5915
aI5916
aI5917
aI5918
aI5920
aI5921
aI5922
aI5923
aI5924
aI5925
aI5926
aI5927
aI5928
aI5929
aI5930
aI5931
aI5932
aI5933
aI5934
aI5935
aI5936
aI5937
asg4
(lp43
I5919
asg6
(lp44
I34
aI392
aI433
aI2835
aI2136
aI11
aI19
aI147
asg8
I26459
sa(dp45
g2
(lp46
I24394
aI24397
aI24398
aI24399
aI24400
aI24401
asg4
(lp47
I24395
aI24396
asg6
(lp48
I16
aI89
aI526
aI34
aI16
aI3026
aI64
aI1364
aI5942
aI64
aI437
aI1
aI3112
aI3026
aI217
aI12883
aI4307
aI76
aI12855
aI647
aI131
aI1435
aI195
aI16
aI34434
aI1293
aI332
asg8
I26512
sa(dp49
g2
(lp50
I24403
aI24404
aI24405
aI24406
aI24407
aI24408
aI24409
aI24410
aI24411
aI24412
aI24413
aI24414
aI24415
aI24416
aI24417
asg4
(lp51
I24402
asg6
(lp52
I3893
aI342
aI195
aI5796
aI43
aI16
aI2352
aI50
aI193
aI332
asg8
I26520
sa(dp53
g2
(lp54
I24458
aI24459
asg4
(lp55
I24457
asg6
(lp56
I1
aI8317
aI50
aI5154
aI7509
aI2784
aI11
aI25340
aI6452
aI26795
aI41
aI15
asg8
I26575
sa(dp57
g2
(lp58
I6571
aI6572
aI6573
aI6575
aI6576
aI6577
aI6578
aI6579
aI6580
aI6581
asg4
(lp59
I6569
aI6570
aI6574
asg6
(lp60
I1
aI4994
aI2394
aI50
aI16
aI425
aI705
aI95
aI64
aI4158
aI16
aI4949
aI7528
aI14
aI48
asg8
I26578
sa(dp61
g2
(lp62
I24474
aI24475
asg4
(lp63
I24476
asg6
(lp64
I738
aI16
aI8069
aI397
aI8070
aI41
aI1393
aI1394
aI1008
aI50
aI6751
aI195
aI772
aI15934
aI5637
asg8
I26605
sa(dp65
g2
(lp66
I24478
asg4
(lp67
I24477
asg6
(lp68
I11101
aI2173
aI4605
aI23829
asg8
I26608
sa(dp69
g2
(lp70
I24552
aI24553
asg4
(lp71
I24551
asg6
(lp72
I11893
aI8561
aI11
aI34544
aI19
asg8
I26722
sa(dp73
g2
(lp74
I24554
aI24556
aI24557
aI24558
asg4
(lp75
I24555
asg6
(lp76
I482
aI64
aI41
aI550
aI6
aI41
aI132
aI64
aI38
aI1339
aI34
aI392
aI4572
aI38
aI641
aI11
aI75
asg8
I26725
sa(dp77
g2
(lp78
I24605
aI24606
aI24607
aI24608
aI24609
aI24610
aI24611
asg4
(lp79
I24604
asg6
(lp80
I16
aI1090
aI150
aI11
aI4121
aI184
aI49
aI1
aI3837
aI4316
aI5146
aI1282
aI11949
asg8
I26772
sa(dp81
g2
(lp82
I24633
aI24634
aI24635
aI24636
aI24638
aI24639
asg4
(lp83
I24637
asg6
(lp84
I1
aI2094
aI32
aI76
aI1072
aI38
aI2095
aI2096
aI92
aI376
aI43
aI1415
aI38
aI2097
aI195
aI2266
aI19037
aI198
aI15
asg8
I26824
sa(dp85
g2
(lp86
I24677
aI24679
aI24680
aI24681
aI24682
aI24683
aI24684
aI24685
aI24686
aI24687
aI24688
aI24689
aI24690
asg4
(lp87
I24678
asg6
(lp88
I1
aI468
aI64
aI469
aI64
aI470
aI64
aI471
aI3
aI472
aI9
aI64
aI38
aI473
aI474
aI422
aI566
aI576
asg8
I26877
sa(dp89
g2
(lp90
I24747
aI24748
aI24749
aI24750
asg4
(lp91
I24751
asg6
(lp92
I5376
aI1
aI3221
aI50
aI16
aI4980
aI2173
aI76
aI52
aI1
aI34692
aI69
aI6341
aI1080
asg8
I26950
sa(dp93
g2
(lp94
I24775
aI24776
aI8212
aI24777
aI24778
aI24779
aI24780
aI24781
aI24782
aI24783
aI24784
aI24785
asg4
(lp95
I24774
asg6
(lp96
I99
aI11
aI1797
aI59
aI4503
aI38
aI448
aI64
aI59
aI1
aI2585
aI50
aI1
aI2094
aI32
aI38
aI10
aI1946
aI1008
aI50
aI625
aI11
aI9634
aI15
asg8
I26977
sa(dp97
g2
(lp98
I24794
aI24795
aI24797
aI24798
aI24799
aI24800
aI24801
asg4
(lp99
I24796
asg6
(lp100
I1
aI2370
aI19
aI16
aI2375
aI41
aI2043
aI5589
aI724
aI211
aI1033
aI76
aI1
aI3112
aI2375
aI170
aI4276
aI64
aI38
aI11
aI4365
aI6861
aI1549
aI59
aI2319
aI4276
aI818
aI543
aI11
aI34721
asg8
I26998
sa(dp101
g2
(lp102
I24830
aI24832
asg4
(lp103
I24831
asg6
(lp104
I513
aI1439
aI13562
aI1
aI1273
aI3433
aI449
aI1111
asg8
I27034
sa(dp105
g2
(lp106
I24841
asg4
(lp107
I24840
asg6
(lp108
I16
aI901
aI376
aI43
aI16
aI5644
aI6
aI414
aI2363
aI64
aI1302
aI50
aI16
aI1847
aI1850
aI2733
aI64
aI150
aI217
aI357
aI38
aI5947
aI2015
aI1126
aI50
aI16
aI349
aI50
aI193
aI6
aI329
aI64
aI38
aI150
aI11
aI9294
aI76
aI9295
aI2139
aI5496
aI38
aI6038
aI6830
aI184
aI291
aI1494
aI43
aI76
aI913
aI1
aI989
aI50
aI16
aI1861
aI562
aI11
aI2181
aI59
aI1413
asg8
I27043
sa(dp109
g2
(lp110
I24842
aI24843
aI24845
aI24846
aI24847
aI24848
aI24849
aI24850
aI24851
aI24852
aI24853
asg4
(lp111
I24844
asg6
(lp112
I14949
aI1371
aI19492
aI170
aI19492
aI11241
aI19493
aI64
aI19494
aI19495
aI64
aI38
aI19496
aI19497
aI3331
aI5979
aI1
aI1565
asg8
I27045
sa(dp113
g2
(lp114
I24855
aI24856
aI24857
aI24858
aI24859
aI24860
aI24861
aI24862
aI24863
aI24864
asg4
(lp115
I24854
asg6
(lp116
I16
aI2466
aI4418
aI102
aI1
aI4455
aI13703
aI478
aI1270
aI184
aI2133
aI1278
asg8
I27057
sa(dp117
g2
(lp118
I24866
aI24867
aI24868
aI24869
aI24870
aI24871
aI24872
aI24873
aI24874
aI24875
aI24876
asg4
(lp119
I24865
asg6
(lp120
I20609
aI38
aI4332
aI195
aI10004
aI860
aI198
asg8
I27068
sa(dp121
g2
(lp122
I15154
aI15155
aI15156
aI15158
aI15159
aI15160
aI15161
aI15162
aI15163
aI15164
asg4
(lp123
I15157
asg6
(lp124
I41
aI6829
aI64
aI7328
aI7329
aI142
aI7329
aI418
aI41
aI150
aI1
aI483
aI50
aI7330
aI459
aI11
aI2149
aI623
aI34
aI16
aI554
aI5947
aI4516
aI3949
aI1
aI13939
aI10187
asg8
I27091
sa(dp125
g2
(lp126
I24890
aI24891
asg4
(lp127
I24889
asg6
(lp128
I18991
aI13562
aI26898
aI7718
asg8
I27102
sa(dp129
g2
(lp130
I3318
aI3319
aI3321
aI3322
aI3323
aI3324
aI3325
aI3326
aI3327
aI3328
aI3329
aI3330
aI3331
aI3332
aI3333
aI3334
aI3335
aI3336
aI3337
aI3338
aI3339
asg4
(lp131
I3320
asg6
(lp132
I2234
aI2232
aI940
aI50
aI1
aI1058
aI129
aI11
aI186
asg8
I27105
sa(dp133
g2
(lp134
I2557
aI2558
aI2560
aI2561
aI2562
aI2563
aI2564
aI2565
aI2566
aI2567
aI2568
aI2569
aI2570
aI2571
aI2572
aI2573
aI2574
aI2575
asg4
(lp135
I2559
asg6
(lp136
I15973
aI76
aI1
aI9123
aI50
aI1
aI4023
aI38
aI114
aI79
aI16
aI10955
aI6
aI132
aI50
aI16
aI10956
aI132
aI50
aI1
aI34834
aI1866
aI999
aI2334
aI158
aI11
aI1
aI592
aI10001
aI15
asg8
I27154
sa(dp137
g2
(lp138
I24922
aI24923
aI24925
aI24926
aI24927
aI24928
aI24929
aI24930
aI24931
aI24932
aI24933
asg4
(lp139
I24924
asg6
(lp140
I2816
aI4138
aI9723
aI38
aI1387
aI805
aI11
aI1302
aI319
aI102
aI9724
aI38
aI9725
aI11
aI1
aI703
aI1445
aI309
aI41
aI1
aI34839
aI309
aI418
asg8
I27176
sa(dp141
g2
(lp142
I24935
aI24936
asg4
(lp143
I24934
asg6
(lp144
I13449
aI11
aI761
aI9093
aI30137
aI11238
asg8
I27188
sa(dp145
g2
(lp146
I24937
aI24938
aI24939
aI24941
aI24942
aI24943
aI24944
asg4
(lp147
I24940
asg6
(lp148
I1
aI1446
aI50
aI1948
aI8405
aI8406
aI6653
aI38
aI6846
aI907
aI1
aI397
aI238
aI17185
aI11
aI1
aI75
aI59
aI34848
asg8
I27191
sa(dp149
g2
(lp150
I24945
aI24946
aI24948
aI24949
aI24950
aI24951
asg4
(lp151
I24947
asg6
(lp152
I191
aI76
aI16
aI1638
aI6170
aI6171
aI6172
aI402
aI64
aI3793
aI943
aI50
aI6173
aI6174
aI11
aI184
aI6175
aI288
aI1469
aI943
aI11
aI184
aI404
aI5519
aI342
aI1030
aI288
aI362
aI943
aI11
aI184
aI4425
aI288
aI761
aI943
aI11
aI184
aI4423
aI38
aI60
aI288
aI38
aI1472
aI943
aI11
aI184
aI4424
aI38
aI1
aI1717
aI50
aI1
aI208
aI11
aI17861
aI5983
aI59
asg8
I27199
sa(dp153
g2
(lp154
I16217
aI16218
aI16219
aI16220
aI16221
aI16222
aI16223
aI16224
aI16225
aI16226
aI16227
aI16228
aI16229
aI16231
aI16232
aI16233
aI16234
aI16235
asg4
(lp155
I16230
asg6
(lp156
I440
aI3463
aI847
aI195
aI1
aI10571
aI1866
aI766
aI1620
asg8
I27206
sa(dp157
g2
(lp158
I24957
aI24958
aI24959
aI24960
aI24961
asg4
(lp159
I24956
asg6
(lp160
I4046
aI195
aI1
aI4965
aI34861
aI3026
aI1332
aI15
asg8
I27253
sa(dp161
g2
(lp162
I24962
aI24964
aI24965
aI24966
asg4
(lp163
I24963
asg6
(lp164
I508
aI1726
aI195
aI4144
aI34866
aI211
aI59
aI4125
aI38
aI13239
asg8
I27259
sa(dp165
g2
(lp166
I11608
asg4
(lp167
I11607
asg6
(lp168
I1967
aI2193
aI2326
aI13562
aI1059
aI34
aI1270
asg8
I27264
sa(dp169
g2
(lp170
I5939
aI5940
aI5941
aI5942
aI5943
aI5944
aI5945
aI5946
aI5947
aI5948
aI5949
aI5950
aI5951
aI5952
aI5953
aI5954
aI5955
aI5956
aI5957
aI5958
asg4
(lp171
I5938
asg6
(lp172
I3797
aI6138
aI6139
aI6140
aI6141
aI627
aI11
aI15875
aI507
asg8
I27275
sa(dp173
g2
(lp174
I24967
aI24968
aI24970
aI24971
aI24972
aI24973
aI24974
aI24975
aI24976
aI24977
aI24978
aI24979
aI24980
aI24981
aI24982
aI24983
aI24984
aI24985
aI24986
aI24987
aI24988
aI24989
aI24990
aI24991
aI24992
aI24993
aI24994
aI24995
aI24996
asg4
(lp175
I24969
asg6
(lp176
I8400
aI11
aI1
aI34870
aI4928
asg8
I27296
sa(dp177
g2
(lp178
I24998
aI24999
aI25000
aI25001
aI25002
asg4
(lp179
I24997
asg6
(lp180
I872
aI50
aI5177
aI1
aI2827
aI19
aI860
asg8
I27347
sa(dp181
g2
(lp182
I25003
aI25005
aI25006
aI25007
aI25008
aI25009
aI25010
aI25011
aI25012
aI25013
aI25014
asg4
(lp183
I25004
asg6
(lp184
I5937
aI41
aI150
aI16
aI864
aI422
aI16
aI6372
aI1311
aI50
aI2292
aI540
aI43
aI376
aI34
aI5428
aI6373
aI4660
aI11
aI6753
aI6754
asg8
I27353
sa(dp185
g2
(lp186
I25016
aI25018
aI25019
asg4
(lp187
I25015
aI25017
asg6
(lp188
I2888
aI6706
aI6707
aI3
aI6708
aI9
aI11
aI8767
aI41
aI8769
asg8
I27365
sa(dp189
g2
(lp190
I25020
aI25022
aI25023
aI25024
aI25025
aI25026
aI25027
aI25028
aI25029
aI25030
aI25031
asg4
(lp191
I25021
asg6
(lp192
I17286
aI274
aI1
aI7231
aI41
aI34911
asg8
I27370
sa(dp193
g2
(lp194
I10101
aI10102
aI10103
aI10104
aI10105
aI10106
aI10107
aI10109
aI10110
aI10111
asg4
(lp195
I10108
asg6
(lp196
I7669
aI93
aI102
aI17971
aI17972
aI64
aI17973
aI17974
aI64
aI38
aI17975
aI274
aI1
aI1350
aI208
aI4601
asg8
I27438
sa(dp197
g2
(lp198
I25077
aI25079
aI25080
aI25081
aI25082
asg4
(lp199
I25078
asg6
(lp200
I2190
aI1250
aI64
aI2080
aI64
aI38
aI775
aI132
aI50
aI1
aI2221
aI11
aI34953
asg8
I27449
sa(dp201
g2
(lp202
I25124
aI25125
aI25127
aI25128
aI25129
asg4
(lp203
I25126
asg6
(lp204
I17812
aI17813
aI1373
aI41
aI1
aI859
aI921
aI28766
asg8
I27495
sa(dp205
g2
(lp206
I25130
aI25131
aI25132
aI25133
aI25134
aI25135
aI25136
aI25137
aI25138
asg4
(lp207
I25139
asg6
(lp208
I7278
aI4864
aI195
aI16
aI495
aI231
aI2306
asg8
I27501
sa(dp209
g2
(lp210
I25141
aI25142
aI25143
asg4
(lp211
I25140
asg6
(lp212
I433
aI50
aI1
aI745
aI134
aI184
aI1
aI19731
aI35022
aI15
asg8
I27511
sa(dp213
g2
(lp214
I25157
aI25160
aI25161
aI25162
aI25163
aI25164
aI25165
aI25166
aI25167
aI25168
asg4
(lp215
I25158
aI25159
asg6
(lp216
I7076
aI742
aI7077
aI34
aI1
aI7078
aI50
aI7079
aI65
aI217
aI169
aI11
aI1971
aI7080
aI1
aI2005
aI7081
aI1159
aI3
aI2906
aI9
aI11
aI1
aI592
aI3318
aI4565
aI41
aI834
asg8
I27528
sa(dp217
g2
(lp218
I25170
aI25171
aI25172
aI25173
aI25174
asg4
(lp219
I25169
asg6
(lp220
I41
aI2736
aI64
aI1
aI52
aI1972
aI50
aI8093
aI69
aI11
aI75
aI76
aI2139
aI1
aI988
aI940
aI50
aI818
aI3267
aI59
aI544
aI694
aI2453
aI50
aI1
aI129
aI11
aI16
aI52
aI35051
aI15
asg8
I27540
sa(dp221
g2
(lp222
I13440
aI13441
aI13442
aI13443
aI13444
aI13445
aI13446
aI13447
aI13448
aI13449
aI13450
aI13451
aI13452
aI13453
aI13454
aI13455
aI13456
aI13457
asg4
(lp223
I13439
asg6
(lp224
I1323
aI1074
aI627
aI195
aI772
aI3245
aI856
aI334
aI15
asg8
I27553
sa(dp225
g2
(lp226
I25216
aI25217
aI25218
aI25219
aI25220
aI25221
aI25222
aI25223
asg4
(lp227
I25215
asg6
(lp228
I114
aI950
aI6416
aI76
aI1
aI6417
aI6418
aI64
aI569
aI950
aI4792
aI64
aI950
aI2162
aI64
aI6
aI6419
aI948
aI648
aI1703
aI50
aI6417
aI6418
aI11
aI20701
aI35071
asg8
I27603
sa(dp229
g2
(lp230
I14479
aI14480
aI14481
aI14482
aI14483
aI14484
aI14485
aI14486
aI14487
aI14488
aI14489
aI14490
aI14491
aI14492
aI14493
aI14494
aI14495
aI14496
aI14497
aI14498
aI14499
aI14500
aI14502
aI14503
aI14504
aI14505
aI14506
aI14507
asg4
(lp231
I14478
aI14501
asg6
(lp232
I493
aI1472
aI64
aI2911
aI195
aI1646
aI1919
aI198
aI15
asg8
I27614
sa(dp233
g2
(lp234
I25226
aI25228
aI25229
aI25230
aI25231
aI25232
aI25233
aI25234
aI25235
aI25236
aI25237
asg4
(lp235
I25227
asg6
(lp236
I41
aI1
aI62
aI63
aI64
aI76
aI2672
aI114
aI332
aI1
aI76
aI2606
aI8612
aI1
aI1978
aI3111
aI19
aI1
aI2672
aI6
aI76
aI161
aI59
aI8613
aI50
aI6812
aI288
aI16
aI6811
aI76
aI5490
aI6812
aI50
aI16
aI6739
aI89
aI11
aI16
aI4522
aI2116
asg8
I27642
sa(dp237
g2
(lp238
I9079
aI9080
aI9081
aI9082
aI9084
asg4
(lp239
I9083
asg6
(lp240
I17812
aI17813
aI241
aI211
aI20484
aI41
aI1077
aI1078
aI761
asg8
I27654
sa(dp241
g2
(lp242
I25246
aI25247
asg4
(lp243
I25245
asg6
(lp244
I1
aI18332
aI50
aI14637
aI3
aI1524
aI1473
aI64
aI761
aI38
aI1064
aI9
aI195
aI35092
aI6430
aI1355
asg8
I27667
sa(dp245
g2
(lp246
I25249
aI25250
aI25251
aI25252
aI25253
aI25254
aI25255
aI25256
aI25257
aI25258
aI25259
aI25260
aI25261
aI25262
aI25263
aI25264
aI25265
aI25266
aI25267
aI25268
aI25269
asg4
(lp247
I25248
asg6
(lp248
I13030
aI384
aI76
aI7768
aI51
aI11
aI315
aI1735
aI64
aI18078
aI64
aI1471
aI16
aI1258
aI6
aI32
aI376
aI43
aI16
aI129
aI64
aI3908
aI64
aI503
aI6
aI2337
aI43
aI16
aI550
aI195
aI8472
aI26550
aI198
asg8
I27670
sa(dp249
g2
(lp250
I25281
aI25282
aI25283
aI25284
aI25285
aI25286
aI25287
aI25288
aI25289
asg4
(lp251
I25280
asg6
(lp252
I1
aI3213
aI50
aI10016
aI38
aI5194
aI8771
aI2654
aI50
aI16
aI3265
aI5116
aI3438
aI11
aI19
aI16789
aI12446
asg8
I27701
sa(dp253
g2
(lp254
I25308
aI25309
aI25310
aI25311
aI25312
aI25313
aI25314
aI25315
aI25316
asg4
(lp255
I25307
asg6
(lp256
I2913
aI195
aI6703
aI19776
aI1158
aI623
asg8
I27728
sa(dp257
g2
(lp258
I25321
aI25322
aI25323
aI25324
aI25325
aI25326
aI25327
aI25328
aI25329
aI25330
aI25331
aI25332
aI25333
asg4
(lp259
I25334
asg6
(lp260
I1
aI7967
aI50
aI7968
aI66
aI41
aI16
aI7337
aI948
aI434
aI49
aI16
aI804
aI51
aI11
aI1207
aI76
aI7969
aI66
aI48
aI11
aI35174
aI19
asg8
I27742
sa(dp261
g2
(lp262
I25336
aI25337
aI25338
aI25339
aI25340
aI25341
asg4
(lp263
I25335
asg6
(lp264
I16
aI3122
aI526
aI486
aI50
aI307
aI50
aI637
aI5335
aI50
aI16
aI5336
aI5337
aI11
aI5114
aI1585
aI50
aI1012
aI15
asg8
I27756
sa(dp265
g2
(lp266
I25342
aI25343
aI25344
aI25345
aI25346
aI25347
aI25349
asg4
(lp267
I25348
asg6
(lp268
I7503
aI18990
aI274
aI1
aI1284
aI208
aI4601
asg8
I27763
sa(dp269
g2
(lp270
I25364
aI25365
aI25366
aI25367
aI25368
aI25369
aI25370
aI25371
asg4
(lp271
I25363
asg6
(lp272
I41
aI4428
aI64
aI16
aI7798
aI32
aI3
aI6
aI7799
aI9
aI11
aI16
aI464
aI50
aI1013
aI415
aI150
aI100
aI11
aI75
aI76
aI415
aI64
aI4442
aI38
aI7800
aI16
aI1154
aI50
aI7798
aI1008
aI50
aI531
aI11
aI19
aI1
aI2037
aI3182
asg8
I27784
sa(dp273
g2
(lp274
I25373
aI25374
aI25375
aI25376
asg4
(lp275
I25372
asg6
(lp276
I16
aI905
aI41
aI8179
aI4658
aI64
aI5154
aI7288
aI64
aI62
aI63
aI4736
aI11
aI11244
aI11242
asg8
I27793
sa(dp277
g2
(lp278
sg4
(lp279
I25377
asg6
(lp280
I16
aI10812
aI14626
aI3
aI14627
aI9
aI7798
aI540
aI1652
aI1323
aI4526
aI38
aI404
aI793
aI1257
aI100
aI12335
aI2670
aI1
aI9385
aI10812
aI10272
aI3
aI7258
aI640
aI9
aI59
aI14628
aI16
aI537
aI14629
aI11
aI1
aI5399
aI50
aI1
aI12148
aI10361
asg8
I27798
sa(dp281
g2
(lp282
I25378
aI25379
aI25380
aI25382
aI25383
aI25384
aI25385
aI25386
aI25387
aI25388
asg4
(lp283
I25381
asg6
(lp284
I1
aI73
aI52
aI6847
aI69
aI11
aI75
aI387
aI1
aI7785
aI1585
aI50
aI7786
aI4324
aI160
aI1412
aI654
aI3849
aI160
aI184
aI403
aI1
aI1990
aI7642
aI4324
aI34
aI1
aI7787
aI1585
aI50
aI7788
aI160
aI584
aI581
aI1
aI208
aI449
aI19
aI55
aI419
asg8
I27799
sa(dp285
g2
(lp286
I25395
aI25397
aI25399
asg4
(lp287
I25396
aI25398
asg6
(lp288
I17310
aI17311
aI526
aI10735
aI7300
asg8
I27815
sa(dp289
g2
(lp290
I25405
aI25406
aI25408
aI25409
aI25410
aI25411
aI25412
aI25413
aI25414
aI25415
aI25416
aI25417
asg4
(lp291
I25407
asg6
(lp292
I16
aI328
aI193
aI195
aI19322
aI2441
aI1158
aI184
asg8
I27829
sa(dp293
g2
(lp294
I25418
aI25419
aI25420
aI25421
aI25423
aI25424
aI25425
aI25426
aI25427
aI25428
aI25429
asg4
(lp295
I25422
asg6
(lp296
I24291
aI64
aI24292
aI195
aI1
aI9699
aI1158
aI184
asg8
I27842
sa(dp297
g2
(lp298
I25431
aI25432
aI25433
aI25434
aI25435
aI25436
aI25437
aI25438
aI25439
asg4
(lp299
I25430
asg6
(lp300
I5950
aI64
aI5951
aI64
aI5955
aI64
aI38
aI5952
aI134
aI11
aI14452
aI41
asg8
I27854
sa(dp301
g2
(lp302
I25441
asg4
(lp303
I25440
asg6
(lp304
I18227
aI4658
aI11
aI35239
asg8
I27864
sa(dp305
g2
(lp306
I25442
aI25443
aI25444
aI25445
aI25447
aI25448
aI25449
aI25450
aI25451
aI25452
aI25453
aI25454
aI25455
aI25456
aI25457
aI25458
aI25459
aI25460
aI25461
asg4
(lp307
I25446
asg6
(lp308
I6564
aI963
aI5601
aI64
aI7468
aI64
aI1178
aI38
aI3899
aI11
aI1
aI4324
aI2980
aI11251
aI12407
asg8
I27866
sa(dp309
g2
(lp310
I25478
aI25479
aI25480
aI25481
aI25482
aI25485
asg4
(lp311
I25483
aI25484
asg6
(lp312
I1
aI7053
aI1150
aI50
aI10002
aI64
aI10003
aI38
aI745
aI11
aI6599
aI170
aI4994
asg8
I27928
sa(dp313
g2
(lp314
I25486
asg4
(lp315
I25487
asg6
(lp316
I16
aI4568
aI1498
aI51
aI332
aI52
aI382
aI69
aI6
aI64
aI41
aI1083
aI64
aI52
aI99
aI11
aI382
aI41
aI1
aI706
aI183
aI69
aI11
aI22661
aI2238
asg8
I27936
sa(dp317
g2
(lp318
I25509
asg4
(lp319
I25508
asg6
(lp320
I1970
aI11
aI2609
aI1
aI1030
aI50
aI5415
aI11
aI1
aI6758
aI238
aI50
aI1
aI4590
aI11933
aI35300
aI15
asg8
I27958
sa(dp321
g2
(lp322
I25511
aI25512
aI25513
aI25514
asg4
(lp323
I25510
asg6
(lp324
I7016
aI7017
aI11
aI1
aI35301
aI7392
asg8
I27960
sa(dp325
g2
(lp326
I1953
aI1954
aI1956
asg4
(lp327
I1955
asg6
(lp328
I7962
aI64
aI493
aI1967
aI64
aI76
aI2270
aI19224
aI64
aI493
aI1320
aI64
aI3203
aI11
aI1
aI1323
aI4145
asg8
I27972
sa(dp329
g2
(lp330
I25534
asg4
(lp331
I25533
asg6
(lp332
I16117
aI16118
aI1611
aI818
aI50
aI2840
aI8774
aI64
aI62
aI63
aI11
aI8664
aI35312
aI184
aI15
asg8
I27987
sa(dp333
g2
(lp334
I25553
aI25554
aI25555
aI25556
aI25557
asg4
(lp335
I25552
asg6
(lp336
I22945
aI11
aI15878
aI35325
aI184
asg8
I28006
sa(dp337
g2
(lp338
I25559
aI25560
aI25561
aI25562
aI25563
asg4
(lp339
I25558
asg6
(lp340
I3310
aI17101
aI11
aI6193
aI35326
aI184
asg8
I28012
sa(dp341
g2
(lp342
I25565
aI25566
asg4
(lp343
I25564
asg6
(lp344
I1428
aI4502
aI312
aI1427
aI6495
aI3124
aI11
aI35330
aI26833
aI19
aI35331
asg8
I28018
sa(dp345
g2
(lp346
I25586
aI25587
aI25588
asg4
(lp347
I25584
aI25585
asg6
(lp348
I8209
aI491
aI2245
aI11
aI1
aI11660
aI1617
aI50
aI1019
aI6033
asg8
I28058
sa(dp349
g2
(lp350
I25607
aI25608
aI25609
aI25610
aI25611
aI25612
asg4
(lp351
I25606
asg6
(lp352
I3608
aI3942
aI1316
aI4587
aI50
aI1
aI5094
aI64
aI8737
aI64
aI6
aI1923
aI11
aI5587
aI134
aI10602
asg8
I28080
sa(dp353
g2
(lp354
I25666
aI25668
aI25669
aI25670
aI25671
aI25672
aI25673
aI25674
aI25675
aI25676
aI25677
aI25678
aI25679
aI25680
aI25681
aI25682
aI25683
aI25684
asg4
(lp355
I25667
asg6
(lp356
I9337
aI9338
aI11
aI1
aI11772
aI75
aI59
asg8
I28140
sa(dp357
g2
(lp358
I25686
aI25687
aI25688
aI25689
aI25690
aI25691
asg4
(lp359
I25685
asg6
(lp360
I1
aI7535
aI7536
aI7537
aI11
aI7328
aI3720
aI7329
asg8
I28159
sa(dp361
g2
(lp362
sg4
(lp363
I25698
asg6
(lp364
I4657
aI38
aI11956
aI2784
aI11
aI1
aI888
aI50
aI16
aI6365
aI6366
asg8
I28172
sa(dp365
g2
(lp366
I25702
aI25703
aI25704
aI25705
aI25706
aI25708
asg4
(lp367
I25707
asg6
(lp368
I41
aI1
aI11456
aI19761
aI18674
aI369
aI50
aI16117
aI16118
aI11
aI23213
aI2135
asg8
I28176
sa(dp369
g2
(lp370
I25710
asg4
(lp371
I25709
asg6
(lp372
I6720
aI5379
aI11
aI35435
aI13168
asg8
I28183
sa(dp373
g2
(lp374
I25712
aI25713
aI25714
aI25715
aI25716
aI25717
aI25718
asg4
(lp375
I25711
asg6
(lp376
I9418
aI11
aI4647
aI35436
aI19
aI682
aI584
aI9200
asg8
I28185
sa(dp377
g2
(lp378
I25719
aI25720
aI25721
aI25722
aI25723
aI25724
aI25726
aI25727
aI25728
aI25729
aI25730
aI25731
aI25732
aI25733
asg4
(lp379
I25725
asg6
(lp380
I17998
aI11
aI1
aI3303
aI95
aI749
aI19
aI1
aI147
asg8
I28193
sa(dp381
g2
(lp382
I25734
aI25735
aI25736
aI25737
asg4
(lp383
I25738
aI25739
aI25740
aI25741
asg6
(lp384
I1
aI592
aI18919
aI50
aI1
aI18901
aI18902
aI11
aI309
aI19
aI35443
asg8
I28206
sa(dp385
g2
(lp386
I25761
aI25763
aI25764
aI25765
asg4
(lp387
I25762
asg6
(lp388
I1
aI4728
aI38
aI4729
aI4730
aI64
aI11
aI1
aI8454
aI50
aI8777
aI8778
aI8779
aI8780
aI8781
aI8782
aI8783
aI8784
aI8785
aI11
aI1
aI9109
aI645
aI41
aI19457
aI26919
aI71
aI1315
aI22
asg8
I28238
sa(dp389
g2
(lp390
I25778
aI25779
aI25780
aI25781
aI25782
aI25783
asg4
(lp391
I25777
asg6
(lp392
I21403
aI21404
aI11
aI41
aI1
aI314
aI411
aI15667
aI102
aI6102
aI15659
asg8
I28254
sa(dp393
g2
(lp394
I25796
aI25798
aI25799
aI25800
aI25801
aI25802
aI25803
aI25804
aI25805
aI25806
asg4
(lp395
I25797
asg6
(lp396
I352
aI7146
aI195
aI217
aI3282
aI3274
aI59
aI1
aI1888
aI50
aI186
aI288
aI407
aI169
aI381
aI195
aI67
aI79
aI7147
aI64
aI291
aI11
aI67
aI1591
aI76
aI11
aI921
aI2436
aI3274
aI11
aI340
aI1473
aI733
asg8
I28273
sa(dp397
g2
(lp398
I25807
aI25808
aI25809
aI25810
aI25812
aI25813
aI25814
aI25815
aI25816
aI25817
aI25818
aI25819
asg4
(lp399
I25811
asg6
(lp400
I7549
aI6281
aI50
aI1
aI2086
aI38
aI4563
aI32
aI64
aI38
aI59
aI1
aI45
aI50
aI3579
aI11
aI1
aI1782
aI50
aI10597
aI15
asg8
I28288
sa(dp401
g2
(lp402
sg4
(lp403
I25844
asg6
(lp404
I1
aI1446
aI50
aI1948
aI8405
aI8406
aI6653
aI38
aI6846
aI907
aI1
aI397
aI238
aI17185
aI11
aI4027
aI29598
aI14119
asg8
I28324
sa(dp405
g2
(lp406
I25872
aI25873
asg4
(lp407
I25871
asg6
(lp408
I3877
aI50
aI1
aI17998
aI11
aI35558
aI35559
aI1896
asg8
I28351
sa(dp409
g2
(lp410
I11186
aI11187
aI11188
aI11189
aI11190
aI11191
aI11192
aI11193
aI11194
aI11195
aI11196
aI11197
aI11198
aI11199
aI11200
aI11201
aI11202
asg4
(lp411
I11185
asg6
(lp412
I19226
aI4571
aI19
aI17700
aI11039
aI11
aI5313
aI5314
aI5320
asg8
I28354
sa(dp413
g2
(lp414
I25875
aI25876
aI25877
asg4
(lp415
I25874
asg6
(lp416
I1
aI5566
aI64
aI1
aI5567
aI38
aI1
aI5568
aI11
aI319
aI1551
aI840
asg8
I28371
sa(dp417
g2
(lp418
I25878
aI25879
aI25881
aI25882
aI25883
aI25884
aI25885
aI25886
aI25887
aI25888
aI25889
aI25890
aI25891
aI25892
aI25893
asg4
(lp419
I25880
asg6
(lp420
I16
aI369
aI50
aI1
aI3608
aI2827
aI64
aI184
aI733
aI76
aI5508
aI64
aI38
aI142
aI1
aI5531
aI38
aI132
aI50
aI1
aI5529
aI38
aI5532
aI11
aI10883
aI35569
aI170
aI3130
aI41
aI1
aI1082
aI52
aI35570
aI1330
aI69
asg8
I28375
sa(dp421
g2
(lp422
I25895
aI25896
aI25897
asg4
(lp423
I25894
asg6
(lp424
I5250
aI64
aI5154
aI7509
aI64
aI5251
aI64
aI6817
aI64
aI9132
aI64
aI38
aI1429
aI11
aI6067
aI2931
aI50
aI248
aI963
asg8
I28391
sa(dp425
g2
(lp426
I25899
aI25900
aI25901
aI25902
aI25903
aI25904
asg4
(lp427
I25898
asg6
(lp428
I16
aI5606
aI50
aI3029
aI2466
aI102
aI16
aI6228
aI2015
aI1058
aI1201
aI64
aI229
aI998
aI7369
aI11
aI35585
aI75
aI59
asg8
I28395
sa(dp429
g2
(lp430
sg4
(lp431
I25909
asg6
(lp432
I1
aI3310
aI2011
aI5230
aI11
aI35596
aI6762
aI184
aI35597
asg8
I28406
sa(dp433
g2
(lp434
I10101
aI10103
aI10104
aI10105
aI10106
aI10107
aI10108
aI10109
aI10110
aI10111
asg4
(lp435
I10102
asg6
(lp436
I18336
aI11
aI1
aI208
aI4601
aI41
aI1350
asg8
I28472
sa(dp437
g2
(lp438
I25979
aI25980
aI25981
asg4
(lp439
I25978
asg6
(lp440
I3784
aI4542
aI41
aI1
aI62
aI63
aI11
aI26172
aI5320
asg8
I28486
sa(dp441
g2
(lp442
I9676
aI9677
aI9678
aI9679
asg4
(lp443
I9675
asg6
(lp444
I19044
aI17250
aI17251
aI11
aI1
aI1085
aI50
aI3903
aI2227
aI41
aI10675
asg8
I28490
sa(dp445
g2
(lp446
I26016
aI26017
aI26018
aI26019
aI26020
aI26021
aI26022
aI26023
aI26024
aI26025
aI26026
aI26027
asg4
(lp447
I26015
asg6
(lp448
I16
aI5146
aI1282
aI34
aI1
aI10112
aI9896
aI1286
aI4860
aI11
aI1
aI66
aI948
aI5868
aI14891
aI4344
aI38
aI14891
aI4344
asg8
I28526
sa(dp449
g2
(lp450
I26042
aI26043
aI26044
aI26046
aI26048
aI26049
asg4
(lp451
I26045
aI26047
asg6
(lp452
I27374
aI3
aI14159
aI9
aI2210
aI11
aI8759
aI526
aI50
asg8
I28552
sa(dp453
g2
(lp454
I18554
aI18555
aI18556
asg4
(lp455
I18553
asg6
(lp456
I813
aI50
aI269
aI38
aI478
aI813
aI50
aI269
aI4417
aI64
aI150
aI11
aI18
aI1148
aI16
aI1433
aI1450
aI50
aI733
aI5210
aI943
aI5538
aI4344
aI38
aI3870
aI943
aI186
aI11
aI1
aI1
aI3309
aI342
aI4965
aI397
aI6411
aI15
asg8
I28576
sa(dp457
g2
(lp458
I11028
aI11029
aI11030
aI11031
aI11032
asg4
(lp459
I11033
asg6
(lp460
I1981
aI1468
aI10097
aI11
aI23819
aI1156
aI4509
asg8
I28580
sa(dp461
g2
(lp462
I21614
aI21615
aI21616
aI21617
aI21618
asg4
(lp463
I21613
asg6
(lp464
I2671
aI38
aI802
aI1840
aI50
aI18679
aI4658
aI64
aI8774
aI64
aI62
aI63
aI11
aI2045
aI12687
aI507
asg8
I28589
sa(dp465
g2
(lp466
I26074
asg4
(lp467
I26073
asg6
(lp468
I1
aI592
aI18919
aI50
aI1
aI18901
aI18902
aI11
aI35725
aI6862
aI465
asg8
I28597
sa(dp469
g2
(lp470
I26075
aI26076
aI26077
aI26078
aI26080
aI26081
asg4
(lp471
I26079
asg6
(lp472
I2671
aI38
aI802
aI1840
aI50
aI18679
aI4658
aI64
aI8774
aI64
aI62
aI63
aI11
aI35729
aI19
aI208
aI1388
aI50
aI746
asg8
I28599
sa(dp473
g2
(lp474
I26083
aI26084
aI26085
aI26086
aI26087
asg4
(lp475
I26082
asg6
(lp476
I16
aI5146
aI1282
aI34
aI1
aI10112
aI9896
aI1286
aI4860
aI11
aI35732
asg8
I28633
sa(dp477
g2
(lp478
I26089
aI26090
aI26091
aI26092
asg4
(lp479
I26088
asg6
(lp480
I114
aI950
aI6416
aI76
aI1
aI6417
aI6418
aI64
aI569
aI950
aI4792
aI64
aI950
aI2162
aI64
aI6
aI6419
aI948
aI648
aI1703
aI50
aI6417
aI6418
aI11
aI35743
aI988
asg8
I28639
sa(dp481
g2
(lp482
I26106
aI26107
aI26109
aI26110
aI26111
aI26112
asg4
(lp483
I26108
asg6
(lp484
I2689
aI64
aI11445
aI38
aI284
aI3
aI3388
aI9
aI11
aI703
aI4429
aI6972
asg8
I28657
sa(dp485
g2
(lp486
I26113
aI26114
aI26115
aI26116
aI26117
aI26118
aI26119
aI26121
aI26122
aI26123
aI26124
aI26125
aI26126
aI26127
aI26128
aI26129
aI26130
asg4
(lp487
I26120
asg6
(lp488
I17474
aI17475
aI64
aI17476
aI17477
aI64
aI17478
aI17479
aI64
aI17480
aI17481
aI64
aI9594
aI17482
aI64
aI17483
aI17484
aI64
aI9594
aI17485
aI64
aI17486
aI17487
aI64
aI17488
aI17489
aI64
aI17490
aI17491
aI38
aI17492
aI17493
aI11
aI1
aI1259
aI2319
aI7694
aI2370
asg8
I28664
sa(dp489
g2
(lp490
I26132
aI26133
aI26134
aI26135
aI26136
aI26137
aI26138
aI26139
aI26140
aI26141
aI26142
aI26143
asg4
(lp491
I26131
asg6
(lp492
I186
aI38
aI2815
aI3591
aI11
aI2609
aI1
aI648
aI1445
aI680
aI50
aI770
aI2560
aI288
aI3609
aI64
aI291
aI11
aI1549
aI59
aI3610
aI943
aI50
aI3611
aI3612
aI64
aI526
aI3600
aI3591
aI228
aI50
aI1
aI592
aI2468
aI1309
aI3067
aI2636
aI11
aI249
aI4004
aI8561
asg8
I28682
sa(dp493
g2
(lp494
I26145
aI26146
aI26147
aI26148
asg4
(lp495
I26144
asg6
(lp496
I16
aI199
aI1084
aI1107
aI50
aI7341
aI59
aI784
aI2521
aI624
aI76
aI5756
aI11
aI3956
aI170
aI7341
aI1174
asg8
I28695
sa(dp497
g2
(lp498
I26149
aI26150
aI26152
asg4
(lp499
I26151
asg6
(lp500
I16
aI1323
aI1074
aI791
aI11
aI16
aI464
aI50
aI4444
aI1074
aI791
aI51
aI2167
aI434
aI38
aI3223
aI76
aI526
aI291
aI4523
aI2131
aI605
aI1
aI272
aI476
aI1323
aI11
aI1
aI238
aI50
aI1
aI1689
aI724
aI799
aI1
aI17532
aI3878
aI41
aI26795
asg8
I28700
sa(dp501
g2
(lp502
I26153
aI26155
asg4
(lp503
I26154
asg6
(lp504
I16
aI17460
aI12340
aI4285
aI4355
aI6401
aI19
aI1
aI62
aI63
aI5995
aI8775
aI64
aI43
aI729
aI43
aI41
aI1
aI134
aI50
aI11088
aI11
aI1
aI25475
aI16
aI17460
aI12340
aI4285
aI4355
aI6401
aI19
aI1
aI62
aI63
aI5995
aI8775
aI64
aI43
aI729
aI43
aI41
aI1
aI134
aI50
aI11088
aI11
aI5012
aI102
aI16
aI5364
aI41
aI15125
asg8
I28704
sa(dp505
g2
(lp506
I26157
aI26158
aI26159
aI26160
aI26161
aI26162
asg4
(lp507
I26156
asg6
(lp508
I3339
aI11
aI1
aI238
aI50
aI3960
aI12509
aI170
aI1914
aI15
asg8
I28716
sa(dp509
g2
(lp510
I26180
aI26181
aI26182
aI26183
aI26184
aI26185
aI26186
aI26187
aI26188
aI26189
aI26190
aI26191
aI26192
aI26193
aI26194
aI26195
aI26196
asg4
(lp511
sg6
(lp512
I7508
aI64
aI1393
aI7509
aI11
aI5213
aI7738
aI115
aI59
aI15
asg8
I28748
sa.