(lp0
(dp1
S'bad'
p2
(lp3
I26534
aI26535
aI26536
asS'good'
p4
(lp5
I26537
aI26538
asS'question'
p6
(lp7
I1
aI446
aI2
aI33383
aI2111
aI22
aI4705
aI28
aI13184
asS'question_id'
p8
I2752
sa(dp9
g2
(lp10
I26539
aI26541
aI26542
aI26543
aI26544
aI26545
aI26546
aI26547
asg4
(lp11
I26540
asg6
(lp12
I1
aI218
aI2
aI291
aI927
aI13093
aI10
aI14
aI1543
asg8
I2753
sa(dp13
g2
(lp14
I26549
aI26550
aI26551
aI26552
aI26553
aI26554
aI26555
aI26556
aI26557
aI26558
aI26559
aI26560
aI26561
aI26562
aI26563
aI26564
aI26565
aI26566
aI26567
asg4
(lp15
I26548
asg6
(lp16
I1
aI122
aI25642
aI167
aI33394
aI557
aI1092
asg8
I2754
sa(dp17
g2
(lp18
I26617
aI26618
aI26619
aI26620
asg4
(lp19
I26616
asg6
(lp20
I1488
aI2843
aI1241
aI2
aI14
aI30279
asg8
I2759
sa(dp21
g2
(lp22
I26677
aI26678
aI26680
aI26681
aI26682
aI26683
aI26684
aI26685
aI26686
aI26687
aI26688
aI26689
aI26690
aI26691
aI26692
aI26693
aI26694
aI26695
aI26696
aI26697
asg4
(lp23
I26679
asg6
(lp24
I1
aI779
aI743
aI2
aI1650
aI22
aI14
aI3059
aI1378
aI3192
asg8
I2765
sa(dp25
g2
(lp26
I26734
aI26735
aI26736
aI26737
aI26738
aI26739
aI26740
aI26741
aI26742
aI26743
aI26744
asg4
(lp27
I26745
asg6
(lp28
I1
aI779
aI8108
aI1923
aI1271
aI2
aI385
asg8
I2768
sa(dp29
g2
(lp30
I26775
aI26776
aI26777
aI26778
aI26779
aI26780
aI26781
aI26782
aI26783
aI26784
aI26785
aI26786
aI26787
aI26788
aI26789
aI26790
aI26791
aI26792
aI26793
asg4
(lp31
I26774
asg6
(lp32
I1
aI779
aI3418
aI2
aI9493
aI2294
aI128
aI14
aI1996
aI6
asg8
I2771
sa(dp33
g2
(lp34
I26828
aI26830
aI26831
aI26832
aI26833
aI26834
aI26835
asg4
(lp35
I26829
asg6
(lp36
I1488
aI1646
aI10
aI14
aI567
aI953
aI14
aI634
aI25
aI309
aI2243
aI12900
aI6
asg8
I2776
sa(dp37
g2
(lp38
I26845
aI26846
aI26847
aI26848
aI26849
aI26850
aI26852
aI26853
aI26854
aI26855
aI26856
aI26857
aI26858
aI26859
aI26860
aI26861
aI26862
aI26863
aI26864
aI26865
aI26866
asg4
(lp39
I26851
asg6
(lp40
I1488
aI122
aI14
aI219
aI3093
aI122
asg8
I2778
sa(dp41
g2
(lp42
I26916
aI26917
aI26918
aI26919
aI26921
aI26922
aI26923
aI26924
aI26925
aI26926
aI26927
aI26928
aI26929
aI26930
aI26931
aI26932
aI26933
aI26934
aI26935
aI26936
aI26937
aI26938
asg4
(lp43
I26920
asg6
(lp44
I1
aI779
aI2262
aI1623
aI2
aI10
aI86
asg8
I2783
sa(dp45
g2
(lp46
I26973
aI26976
aI26977
aI26978
aI26979
aI26980
asg4
(lp47
I26974
aI26975
asg6
(lp48
I1488
aI122
aI7
aI33614
aI891
aI224
asg8
I2789
sa(dp49
g2
(lp50
I26982
aI26983
aI26984
aI26985
aI26986
aI26987
aI26988
aI26989
aI26990
aI26991
aI26992
aI26993
aI26994
aI26995
aI26996
asg4
(lp51
I26981
asg6
(lp52
I1488
aI122
aI14048
aI133
aI7
aI4295
aI25
aI121
aI224
asg8
I2790
sa(dp53
g2
(lp54
I27037
aI27038
asg4
(lp55
I27036
asg6
(lp56
I1488
aI2213
aI2
aI24230
aI5400
aI25757
aI22
aI6
asg8
I2795
sa(dp57
g2
(lp58
I27041
aI27042
aI27043
aI27045
aI27046
aI27047
aI27048
aI27049
aI27050
aI27051
asg4
(lp59
I27039
aI27040
aI27044
asg6
(lp60
I1488
aI5
aI1579
asg8
I2796
sa(dp61
g2
(lp62
I27066
aI27067
asg4
(lp63
I27068
asg6
(lp64
I1488
aI1602
aI25
aI5651
aI122
aI498
aI14317
aI4782
asg8
I2798
sa(dp65
g2
(lp66
I27070
asg4
(lp67
I27069
asg6
(lp68
I15365
aI1646
aI3986
aI22636
asg8
I2799
sa(dp69
g2
(lp70
I27187
aI27188
asg4
(lp71
I27186
asg6
(lp72
I1488
aI7159
aI2
aI33724
aI10
asg8
I2809
sa(dp73
g2
(lp74
I27189
aI27191
aI27192
aI27193
asg4
(lp75
I27190
asg6
(lp76
I1
aI3963
aI42
aI33728
aI2
aI33
asg8
I2810
sa(dp77
g2
(lp78
I27240
aI27241
aI27242
aI27243
aI27244
aI27245
aI27246
asg4
(lp79
I27239
asg6
(lp80
I1488
aI7786
aI880
aI19159
asg8
I2815
sa(dp81
g2
(lp82
I27292
aI27293
aI27294
aI27295
aI27297
aI27298
asg4
(lp83
I27296
asg6
(lp84
I1
aI122
aI1743
aI17656
aI125
aI6
asg8
I2820
sa(dp85
g2
(lp86
I27345
aI27347
aI27348
aI27349
aI27350
aI27351
aI27352
aI27353
aI27354
aI27355
aI27356
aI27357
aI27358
asg4
(lp87
I27346
asg6
(lp88
I1
aI299
aI10523
aI6432
asg8
I2826
sa(dp89
g2
(lp90
I27421
aI27422
aI27423
aI27424
asg4
(lp91
I27425
asg6
(lp92
I1488
aI1646
aI34
aI201
aI14
aI33880
aI203
aI5302
aI705
asg8
I2834
sa(dp93
g2
(lp94
I27449
aI27450
aI27451
aI27452
aI27453
aI27454
aI27455
aI27456
aI27457
aI27458
aI27459
aI27460
asg4
(lp95
I27448
asg6
(lp96
I1488
aI1602
aI25
aI406
aI2
aI8109
aI6
asg8
I2838
sa(dp97
g2
(lp98
I27469
aI27470
aI27472
aI27473
aI27474
aI27475
aI27476
asg4
(lp99
I27471
asg6
(lp100
I1488
aI528
aI364
aI2
aI33909
asg8
I2840
sa(dp101
g2
(lp102
I27505
aI27507
asg4
(lp103
I27506
asg6
(lp104
I15899
aI17203
aI12608
aI14
aI869
aI2862
aI319
aI729
asg8
I2844
sa(dp105
g2
(lp106
I27516
asg4
(lp107
I27515
asg6
(lp108
I1488
aI2
aI1656
aI173
aI991
asg8
I2846
sa(dp109
g2
(lp110
I27517
aI27518
aI27520
aI27521
aI27522
aI27523
aI27524
aI27525
aI27526
aI27527
aI27528
asg4
(lp111
I27519
asg6
(lp112
I15748
aI2
aI7
aI126
aI127
aI463
aI623
aI22
aI759
aI173
aI17969
aI17970
aI2757
aI5038
aI14
aI3418
asg8
I2847
sa(dp113
g2
(lp114
I27530
aI27531
aI27532
aI27533
aI27534
aI27535
aI27536
aI27537
aI27538
aI27539
asg4
(lp115
I27529
asg6
(lp116
I1488
aI334
aI865
aI128
aI1620
aI876
asg8
I2848
sa(dp117
g2
(lp118
I27541
aI27542
aI27543
aI27544
aI27545
aI27546
aI27547
aI27548
aI27549
aI27550
aI27551
asg4
(lp119
I27540
asg6
(lp120
I1418
aI122
aI8442
aI561
aI125
asg8
I2849
sa(dp121
g2
(lp122
I27564
aI27565
aI27566
aI27568
aI27569
aI27570
aI27571
aI27572
aI27573
aI27574
asg4
(lp123
I27567
asg6
(lp124
I1488
aI3920
aI3372
aI14
aI12303
aI8604
asg8
I2853
sa(dp125
g2
(lp126
I27576
aI27577
asg4
(lp127
I27575
asg6
(lp128
I7
aI4072
aI2452
aI64
aI271
aI133
aI5037
aI25
aI14
aI16118
aI113
aI75
aI13263
aI66
aI12608
aI25866
aI6485
asg8
I2854
sa(dp129
g2
(lp130
I27578
aI27579
aI27581
aI27582
aI27583
aI27584
aI27585
aI27586
aI27587
aI27588
aI27589
aI27590
aI27591
aI27592
aI27593
aI27594
aI27595
aI27596
aI27597
aI27598
aI27599
asg4
(lp131
I27580
asg6
(lp132
I1488
aI5508
aI25
aI14
aI2289
aI73
aI2
aI660
asg8
I2855
sa(dp133
g2
(lp134
I27627
aI27628
aI27630
aI27631
aI27632
aI27633
aI27634
aI27635
aI27636
aI27637
aI27638
aI27639
aI27640
aI27641
aI27642
aI27643
aI27644
aI27645
asg4
(lp135
I27629
asg6
(lp136
I1488
aI76
aI25
aI14
aI34025
aI1393
aI658
aI1810
aI98
aI2
aI14
aI388
aI8441
aI6
asg8
I2859
sa(dp137
g2
(lp138
I27649
aI27650
aI27652
aI27653
aI27654
aI27655
aI27656
aI27657
aI27658
aI27659
aI27660
asg4
(lp139
I27651
asg6
(lp140
I1488
aI2
aI14
aI1574
aI1017
aI212
aI22
aI14
aI34030
aI212
aI295
asg8
I2861
sa(dp141
g2
(lp142
I27662
aI27663
asg4
(lp143
I27661
asg6
(lp144
I1488
aI2
aI487
aI18845
aI29192
aI19100
asg8
I2862
sa(dp145
g2
(lp146
I27664
aI27665
aI27666
aI27668
aI27669
aI27670
aI27671
asg4
(lp147
I27667
asg6
(lp148
I1488
aI2
aI14
aI33
aI173
aI34041
asg8
I2863
sa(dp149
g2
(lp150
I27672
aI27673
aI27675
aI27676
aI27677
aI27678
asg4
(lp151
I27674
asg6
(lp152
I1488
aI2
aI16307
aI5042
aI173
asg8
I2864
sa(dp153
g2
(lp154
I27679
aI27680
aI27681
aI27682
aI27683
aI27684
aI27685
aI27686
aI27687
aI27688
aI27689
aI27690
aI27691
aI27693
aI27694
aI27695
aI27696
aI27697
asg4
(lp155
I27692
asg6
(lp156
I420
aI260
aI408
aI10
aI14
aI983
aI16554
aI25
aI16135
aI122
aI14
aI8998
aI1393
aI492
aI2568
asg8
I2865
sa(dp157
g2
(lp158
I27728
aI27729
aI27730
aI27731
aI27732
asg4
(lp159
I27727
asg6
(lp160
I16143
aI700
aI28
aI966
aI122
aI14
aI4256
aI34054
aI2452
aI923
aI6
asg8
I2869
sa(dp161
g2
(lp162
I27733
aI27735
aI27736
aI27737
asg4
(lp163
I27734
asg6
(lp164
I16164
aI3042
aI28
aI5805
aI122
aI3576
aI34059
aI139
aI173
aI3553
aI42
aI11644
asg8
I2870
sa(dp165
g2
(lp166
I27739
asg4
(lp167
I27738
asg6
(lp168
I15719
aI12608
aI746
aI113
aI865
asg8
I2871
sa(dp169
g2
(lp170
I27750
aI27751
aI27752
aI27753
aI27754
aI27755
aI27756
aI27757
aI27758
aI27759
aI27760
aI27761
aI27762
aI27763
aI27764
aI27765
aI27766
aI27767
aI27768
aI27769
asg4
(lp171
I27749
asg6
(lp172
I1488
aI408
aI2
aI14256
aI1157
asg8
I2873
sa(dp173
g2
(lp174
I27770
aI27771
aI27773
aI27774
aI27775
aI27776
aI27777
aI27778
aI27779
aI27780
aI27781
aI27782
aI27783
aI27784
aI27785
aI27786
aI27787
aI27788
aI27789
aI27790
aI27791
aI27792
aI27793
aI27794
aI27795
aI27796
aI27797
aI27798
aI27799
asg4
(lp175
I27772
asg6
(lp176
I1488
aI2
aI14
aI34063
aI7487
asg8
I2874
sa(dp177
g2
(lp178
I27822
aI27823
aI27824
aI27825
aI27826
asg4
(lp179
I27821
asg6
(lp180
I1488
aI14
aI2254
aI10
aI561
asg8
I2876
sa(dp181
g2
(lp182
I27827
aI27829
aI27830
aI27831
aI27832
aI27833
aI27834
aI27835
aI27836
aI27837
aI27838
asg4
(lp183
I27828
asg6
(lp184
I1488
aI4040
aI2
aI5653
aI5654
asg8
I2877
sa(dp185
g2
(lp186
I27840
aI27842
aI27843
asg4
(lp187
I27839
aI27841
asg6
(lp188
I1488
aI2
aI23638
aI22
aI12321
asg8
I2878
sa(dp189
g2
(lp190
I27844
aI27846
aI27847
aI27848
aI27849
aI27850
aI27851
aI27852
aI27853
aI27854
aI27855
asg4
(lp191
I27845
asg6
(lp192
I18010
aI16240
aI18011
aI1568
aI14
aI6118
aI22
aI34109
asg8
I2879
sa(dp193
g2
(lp194
I27913
aI27914
aI27915
aI27916
aI27917
aI27918
aI27919
aI27921
aI27922
aI27923
asg4
(lp195
I27920
asg6
(lp196
I15805
aI17213
aI64
aI2873
aI17214
aI16060
aI42
aI16060
aI25
aI16808
aI1841
aI190
aI1495
aI4724
aI4027
aI87
aI17215
aI17216
aI28
aI17217
aI16060
aI28
aI17218
aI16060
aI28
aI17219
aI16060
aI28
aI42
aI14
aI16060
aI25
aI16808
aI190
aI42
aI4724
aI28
aI6883
aI28
aI42
aI5497
aI1495
aI4027
aI42
aI4716
aI2938
aI87
aI17220
aI17221
aI66
aI1568
aI14
aI940
aI137
aI3982
asg8
I2885
sa(dp197
g2
(lp198
I27924
aI27926
aI27927
aI27928
aI27929
asg4
(lp199
I27925
asg6
(lp200
I1488
aI76
aI25
aI14
aI1697
aI2
aI34151
asg8
I2886
sa(dp201
g2
(lp202
I27971
aI27972
aI27974
aI27975
aI27976
asg4
(lp203
I27973
asg6
(lp204
I16141
aI17353
aI25
aI14
aI15490
aI15491
aI128
aI2423
aI34
aI5528
aI953
aI14
aI2462
aI25
aI863
aI1192
aI15702
aI15703
aI962
aI22
aI14
aI560
aI602
aI27787
asg8
I2892
sa(dp205
g2
(lp206
I27977
aI27978
aI27979
aI27980
aI27981
aI27982
aI27983
aI27984
aI27985
asg4
(lp207
I27986
asg6
(lp208
I1488
aI4162
aI122
aI7
aI950
aI156
aI1781
asg8
I2893
sa(dp209
g2
(lp210
I27988
aI27989
aI27990
asg4
(lp211
I27987
asg6
(lp212
I16491
aI34222
aI6
asg8
I2894
sa(dp213
g2
(lp214
I28004
aI28007
aI28008
aI28009
aI28010
aI28011
aI28012
aI28013
aI28014
aI28015
asg4
(lp215
I28005
aI28006
asg6
(lp216
I1488
aI2
aI14
aI388
aI2744
aI3957
aI22
aI535
asg8
I2896
sa(dp217
g2
(lp218
I28017
aI28018
aI28019
aI28020
aI28021
asg4
(lp219
I28016
asg6
(lp220
I1488
aI2
aI7
aI201
aI34251
aI6
asg8
I2897
sa(dp221
g2
(lp222
I28031
aI28032
aI28033
aI28034
aI28035
aI28036
aI28037
aI28038
aI28039
aI28040
aI28041
aI28042
aI28043
aI28044
aI28045
aI28046
aI28047
aI28048
asg4
(lp223
I28030
asg6
(lp224
I1488
aI408
aI122
aI498
aI2666
aI557
aI226
aI6
asg8
I2899
sa(dp225
g2
(lp226
I28082
aI28083
aI28084
aI28085
aI28086
aI28087
aI28088
aI28089
asg4
(lp227
I28081
asg6
(lp228
I1488
aI2
aI19376
aI34272
asg8
I2902
sa(dp229
g2
(lp230
I28093
aI28094
aI28095
aI28096
aI28097
aI28098
aI28099
aI28100
aI28101
aI28102
aI28103
aI28104
aI28105
aI28106
aI28107
aI28108
aI28109
aI28110
aI28111
aI28112
aI28113
aI28114
aI28116
aI28117
aI28118
aI28119
aI28120
aI28121
asg4
(lp231
I28092
aI28115
asg6
(lp232
I1371
aI122
aI1197
aI1440
aI125
aI6
asg8
I2904
sa(dp233
g2
(lp234
I28122
aI28124
aI28125
aI28126
aI28127
aI28128
aI28129
aI28130
aI28131
aI28132
aI28133
asg4
(lp235
I28123
asg6
(lp236
I1488
aI2
aI7
aI8938
aI1611
asg8
I2905
sa(dp237
g2
(lp238
I28134
aI28135
aI28136
aI28137
aI28139
asg4
(lp239
I28138
asg6
(lp240
I562
aI15949
aI42
aI15950
aI647
aI60
aI255
aI2307
aI42
aI1177
aI28
aI463
aI142
aI7
aI910
aI25
aI8699
aI42
aI8650
aI2088
aI139
aI19146
aI22
aI702
aI703
aI487
asg8
I2906
sa(dp241
g2
(lp242
I28148
aI28149
asg4
(lp243
I28147
asg6
(lp244
I7937
aI122
aI34296
aI5363
aI945
asg8
I2909
sa(dp245
g2
(lp246
I28151
aI28152
aI28153
aI28154
aI28155
aI28156
aI28157
aI28158
aI28159
aI28160
aI28161
aI28162
aI28163
aI28164
aI28165
aI28166
aI28167
aI28168
aI28169
aI28170
aI28171
asg4
(lp247
I28150
asg6
(lp248
I16128
aI174
aI28
aI966
aI122
aI7086
aI25497
aI125
asg8
I2910
sa(dp249
g2
(lp250
I28183
aI28184
aI28185
aI28186
aI28187
aI28188
aI28189
aI28190
aI28191
asg4
(lp251
I28182
asg6
(lp252
I1488
aI2867
aI2
aI10
aI15178
aI11452
asg8
I2913
sa(dp253
g2
(lp254
I28210
aI28211
aI28212
aI28213
aI28214
aI28215
aI28216
aI28217
aI28218
asg4
(lp255
I28209
asg6
(lp256
I2423
aI122
aI5614
aI18408
aI781
aI404
asg8
I2915
sa(dp257
g2
(lp258
I28223
aI28224
aI28225
aI28226
aI28227
aI28228
aI28229
aI28230
aI28231
aI28232
aI28233
aI28234
aI28235
asg4
(lp259
I28236
asg6
(lp260
I1488
aI1579
aI2
aI34378
aI10
asg8
I2917
sa(dp261
g2
(lp262
I28238
aI28239
aI28240
aI28241
aI28242
aI28243
asg4
(lp263
I28237
asg6
(lp264
I1488
aI2
aI4358
aI1141
aI25
aI2107
aI6
asg8
I2918
sa(dp265
g2
(lp266
I28244
aI28245
aI28246
aI28247
aI28248
aI28249
aI28251
asg4
(lp267
I28250
asg6
(lp268
I18660
aI18833
aI18834
aI18662
aI1568
aI14
aI882
aI137
aI3982
asg8
I2919
sa(dp269
g2
(lp270
I28266
aI28267
aI28268
aI28269
aI28270
aI28271
aI28272
aI28273
asg4
(lp271
I28265
asg6
(lp272
I1488
aI1602
aI25
aI743
aI2
aI10
aI14
aI1538
aI2689
asg8
I2922
sa(dp273
g2
(lp274
I28275
aI28276
aI28277
aI28278
asg4
(lp275
I28274
asg6
(lp276
I1488
aI10823
aI2
aI9640
aI9638
asg8
I2923
sa(dp277
g2
(lp278
sg4
(lp279
I28279
asg6
(lp280
I1488
aI2
aI14
aI4581
aI25
aI14
aI10524
aI8796
asg8
I2924
sa(dp281
g2
(lp282
I28280
aI28281
aI28282
aI28284
aI28285
aI28286
aI28287
aI28288
aI28289
aI28290
asg4
(lp283
I28283
asg6
(lp284
I1488
aI384
aI380
aI14
aI137
aI319
aI10
aI262
aI296
asg8
I2925
sa(dp285
g2
(lp286
I28297
aI28299
aI28301
asg4
(lp287
I28298
aI28300
asg6
(lp288
I18660
aI18833
aI18834
aI18662
aI354
aI9156
aI7520
asg8
I2927
sa(dp289
g2
(lp290
I28312
aI28313
aI28315
aI28316
aI28317
aI28318
aI28319
aI28320
aI28321
aI28322
aI28323
aI28324
asg4
(lp291
I28314
asg6
(lp292
I1086
aI22
aI14
aI11316
aI37
aI989
aI14
aI3559
aI15063
aI13907
aI28
aI14080
aI28
aI42
aI9427
aI614
aI14
aI15505
aI15506
aI42
aI14
aI1019
aI10508
aI122
aI17956
aI1910
aI781
aI128
asg8
I2930
sa(dp293
g2
(lp294
I28325
aI28326
aI28327
aI28328
aI28330
aI28331
aI28332
aI28333
aI28334
aI28335
aI28336
asg4
(lp295
I28329
asg6
(lp296
I22
aI7937
aI28
aI12855
aI2
aI1001
aI9829
aI22
aI14
aI15216
aI25
aI637
aI42
aI14
aI15604
aI25
aI635
aI28
aI207
aI302
aI394
aI2
aI251
aI9829
aI113
aI14
aI15605
aI599
aI122
aI14
aI8174
aI781
aI128
asg8
I2931
sa(dp297
g2
(lp298
I28338
aI28339
aI28340
aI28341
aI28342
aI28343
aI28344
aI28345
aI28346
asg4
(lp299
I28337
asg6
(lp300
I1488
aI160
aI2
aI12835
aI22
asg8
I2932
sa(dp301
g2
(lp302
I28348
asg4
(lp303
I28347
asg6
(lp304
I1488
aI2
aI34444
asg8
I2933
sa(dp305
g2
(lp306
I28349
aI28350
aI28351
aI28352
aI28354
aI28355
aI28356
aI28357
aI28358
aI28359
aI28360
aI28361
aI28362
aI28363
aI28364
aI28365
aI28366
aI28367
aI28368
asg4
(lp307
I28353
asg6
(lp308
I1488
aI2
aI14
aI3758
aI2405
aI9647
aI10801
asg8
I2934
sa(dp309
g2
(lp310
I28411
aI28412
aI28413
aI28414
aI28415
aI28418
asg4
(lp311
I28416
aI28417
asg6
(lp312
I1488
aI2
aI5502
aI109
aI4285
asg8
I2937
sa(dp313
g2
(lp314
I28419
asg4
(lp315
I28420
asg6
(lp316
I1488
aI2
aI21419
aI1713
asg8
I2938
sa(dp317
g2
(lp318
I28442
asg4
(lp319
I28441
asg6
(lp320
I1488
aI2
aI14
aI5657
aI161
aI25
aI14
aI3971
aI10311
aI34508
aI6
asg8
I2940
sa(dp321
g2
(lp322
I28444
aI28445
aI28446
aI28447
asg4
(lp323
I28443
asg6
(lp324
I1488
aI2
aI14
aI34511
aI9266
asg8
I2941
sa(dp325
g2
(lp326
I28455
aI28456
aI28458
asg4
(lp327
I28457
asg6
(lp328
I16143
aI1447
aI2
aI14
aI7162
aI3577
asg8
I2943
sa(dp329
g2
(lp330
I28471
asg4
(lp331
I28470
asg6
(lp332
I22
aI14
aI5450
aI1637
aI14
aI12801
aI22
aI15416
aI64
aI14
aI283
aI2
aI14
aI17255
aI66
aI28
aI42
aI2772
aI14
aI12801
aI60
aI14
aI12802
aI2696
aI2
aI7228
aI34522
aI128
aI6
asg8
I2946
sa(dp333
g2
(lp334
I28490
aI28491
aI28492
aI28493
aI28494
asg4
(lp335
I28489
asg6
(lp336
I15621
aI2
aI14259
aI34535
aI128
asg8
I2949
sa(dp337
g2
(lp338
I28496
aI28497
aI28498
aI28499
aI28500
asg4
(lp339
I28495
asg6
(lp340
I17500
aI28
aI17501
aI28
aI15490
aI15491
aI2
aI5211
aI34536
aI128
asg8
I2950
sa(dp341
g2
(lp342
I28502
aI28503
asg4
(lp343
I28501
asg6
(lp344
I319
aI87
aI16424
aI25
aI14
aI3710
aI1127
aI25
aI14
aI359
aI25
aI16425
aI2
aI34540
aI25799
aI10
aI34541
asg8
I2951
sa(dp345
g2
(lp346
I28543
aI28544
aI28545
asg4
(lp347
I28541
aI28542
asg6
(lp348
I1488
aI2
aI14
aI11302
aI1480
aI25
aI665
aI5079
asg8
I2954
sa(dp349
g2
(lp350
I28564
aI28565
aI28566
aI28567
aI28568
aI28569
asg4
(lp351
I28563
asg6
(lp352
I8027
aI14
aI9708
aI25
aI14
aI7199
aI25
aI2569
aI10
aI16150
aI2626
aI28
aI5444
aI28
aI4574
aI2569
aI128
aI14
aI16667
aI25
aI16668
aI16669
aI2
aI4722
aI160
aI9025
asg8
I2959
sa(dp353
g2
(lp354
I28623
aI28625
aI28626
aI28627
aI28628
aI28629
aI28630
aI28631
aI28632
aI28633
aI28634
aI28635
aI28636
aI28637
aI28638
aI28639
aI28640
aI28641
asg4
(lp355
I28624
asg6
(lp356
I1488
aI2
aI14
aI15209
aI33
aI173
asg8
I2967
sa(dp357
g2
(lp358
I28643
aI28644
aI28645
aI28646
aI28647
aI28648
asg4
(lp359
I28642
asg6
(lp360
I1488
aI2
aI34625
aI3131
aI23810
asg8
I2968
sa(dp361
g2
(lp362
sg4
(lp363
I28655
asg6
(lp364
I1488
aI2
aI14
aI586
aI25
aI7
aI34011
aI12656
asg8
I2970
sa(dp365
g2
(lp366
I28659
aI28660
aI28661
aI28662
aI28663
aI28665
asg4
(lp367
I28664
asg6
(lp368
I15620
aI15621
aI2
aI21997
aI1622
asg8
I2972
sa(dp369
g2
(lp370
I28667
asg4
(lp371
I28666
asg6
(lp372
I1488
aI2
aI34647
aI11566
asg8
I2973
sa(dp373
g2
(lp374
I28669
aI28670
aI28671
aI28672
aI28673
aI28674
aI28675
asg4
(lp375
I28668
asg6
(lp376
I15805
aI16240
aI16241
aI2
aI4029
aI34650
aI10
aI446
aI384
aI7724
asg8
I2974
sa(dp377
g2
(lp378
I28676
aI28677
aI28678
aI28679
aI28680
aI28681
aI28683
aI28684
aI28685
aI28686
aI28687
aI28688
aI28689
aI28690
asg4
(lp379
I28682
asg6
(lp380
I16093
aI16480
aI2
aI14
aI2727
aI53
aI480
aI10
aI14
aI86
asg8
I2975
sa(dp381
g2
(lp382
I28691
aI28692
aI28693
aI28694
asg4
(lp383
I28695
aI28696
aI28697
aI28698
asg6
(lp384
I14
aI4917
aI25
aI14
aI18067
aI15485
aI10
aI18068
aI18069
aI2
aI212
aI10
aI34657
asg8
I2976
sa(dp385
g2
(lp386
I28723
aI28725
aI28726
aI28727
asg4
(lp387
I28724
asg6
(lp388
I1488
aI2
aI14
aI7631
aI445
aI22
aI18087
aI25887
aI27
aI1067
aI13
asg8
I2980
sa(dp389
g2
(lp390
I28740
aI28741
aI28742
aI28743
aI28744
aI28745
asg4
(lp391
I28739
asg6
(lp392
I16451
aI16452
aI28
aI15708
aI16453
aI16454
aI28
aI15694
aI16455
aI28
aI42
aI16456
aI16457
aI2
aI22
aI14
aI217
aI291
aI14034
aI60
aI5153
aI14026
asg8
I2983
sa(dp393
g2
(lp394
I28758
aI28760
aI28761
aI28762
aI28763
aI28764
aI28765
aI28766
aI28767
aI28768
asg4
(lp395
I28759
asg6
(lp396
I1488
aI2
aI232
aI1039
aI471
asg8
I2986
sa(dp397
g2
(lp398
I28773
aI28774
aI28775
aI28776
aI28778
aI28779
aI28780
aI28781
aI28782
aI28783
aI28784
aI28785
asg4
(lp399
I28777
asg6
(lp400
I1488
aI2
aI14
aI1325
aI25
aI34724
aI6
asg8
I2988
sa(dp401
g2
(lp402
sg4
(lp403
I28810
asg6
(lp404
I1488
aI2
aI3452
aI28637
aI12488
asg8
I2991
sa(dp405
g2
(lp406
I28838
aI28839
asg4
(lp407
I28837
asg6
(lp408
I14
aI4363
aI25
aI14
aI4337
aI28
aI1382
aI14
aI986
aI2
aI34775
aI34776
aI1416
asg8
I2993
sa(dp409
g2
(lp410
I28841
aI28842
aI28843
aI28844
aI28845
aI28846
aI28847
aI28848
aI28849
aI28850
aI28851
aI28852
aI28853
aI28854
aI28855
aI28856
aI28857
asg4
(lp411
I28840
asg6
(lp412
I16346
aI2626
aI28
aI1776
aI2
aI4511
aI4512
aI4518
asg8
I2994
sa(dp413
g2
(lp414
I28859
aI28860
aI28861
asg4
(lp415
I28858
asg6
(lp416
I1488
aI2
aI267
aI1114
aI542
asg8
I2995
sa(dp417
g2
(lp418
I28862
aI28863
aI28865
aI28866
aI28867
aI28868
aI28869
aI28870
aI28871
aI28872
aI28873
aI28874
aI28875
aI28876
aI28877
asg4
(lp419
I28864
asg6
(lp420
I1488
aI2
aI9310
aI34786
aI109
aI2554
aI22
aI14
aI707
aI201
aI34787
aI921
aI203
asg8
I2996
sa(dp421
g2
(lp422
I28879
aI28880
aI28881
asg4
(lp423
I28878
asg6
(lp424
I1488
aI2
aI5114
aI2363
aI25
aI501
aI627
asg8
I2997
sa(dp425
g2
(lp426
I28883
aI28884
aI28885
aI28886
aI28887
aI28888
asg4
(lp427
I28882
asg6
(lp428
I1488
aI2
aI34804
aI33
aI173
asg8
I2998
sa(dp429
g2
(lp430
sg4
(lp431
I28893
asg6
(lp432
I128
aI14
aI476
aI7853
aI18865
aI18866
aI190
aI2758
aI290
aI128
aI18867
aI18868
aI28
aI4810
aI2
aI34815
aI5661
aI128
aI34816
asg8
I3000
sa(dp433
g2
(lp434
I28959
aI28961
aI28962
aI28963
aI28964
aI28965
aI28966
aI28967
aI28968
aI28969
asg4
(lp435
I28960
asg6
(lp436
I5728
aI2
aI14
aI137
aI3982
aI22
aI940
asg8
I3009
sa(dp437
g2
(lp438
I28974
aI28975
aI28976
asg4
(lp439
I28973
asg6
(lp440
I1488
aI2
aI25114
aI4518
asg8
I3011
sa(dp441
g2
(lp442
I28978
aI28979
aI28980
aI28981
asg4
(lp443
I28977
asg6
(lp444
I16103
aI16104
aI2
aI14
aI710
aI25
aI3326
aI1705
aI22
aI9104
asg8
I3012
sa(dp445
g2
(lp446
I29016
aI29017
aI29018
aI29019
aI29020
aI29021
aI29022
aI29023
aI29024
aI29025
aI29026
aI29027
asg4
(lp447
I29015
asg6
(lp448
I1488
aI2
aI14
aI3809
aI614
aI4959
aI34900
aI3772
aI42
aI34900
aI3772
asg8
I3016
sa(dp449
g2
(lp450
I29042
aI29043
aI29044
aI29046
aI29048
aI29049
asg4
(lp451
I29045
aI29047
asg6
(lp452
I1488
aI2
aI34931
aI354
aI25
asg8
I3019
sa(dp453
g2
(lp454
I29068
aI29069
aI29070
asg4
(lp455
I29067
asg6
(lp456
I1488
aI2
aI14
aI14
aI2735
aI870
aI4256
aI282
aI5343
aI6
asg8
I3022
sa(dp457
g2
(lp458
I29071
aI29072
aI29073
aI29074
aI29075
asg4
(lp459
I29076
asg6
(lp460
I14
aI16924
aI25
aI14
aI773
aI1507
aI3162
aI25
aI16128
aI2
aI22625
aI3096
aI3913
asg8
I3023
sa(dp461
g2
(lp462
I29082
aI29083
aI29084
aI29085
aI29086
asg4
(lp463
I29081
asg6
(lp464
I194
aI1208
aI6318
aI4721
aI2777
aI25
aI14
aI17261
aI15485
aI28
aI4947
aI34
aI14
aI19743
aI2867
aI25
aI19744
aI28
aI19079
aI34
aI14
aI5128
aI60
aI14
aI19745
aI19746
aI109
aI1208
aI6318
aI3076
aI28
aI42
aI19747
aI34
aI14
aI16486
aI15940
aI15485
aI2
aI1560
aI11067
aI1157
asg8
I3025
sa(dp465
g2
(lp466
I29090
asg4
(lp467
I29089
asg6
(lp468
I16805
aI2
aI7
aI16806
aI814
aI480
aI22
aI16796
aI16807
aI28
aI16808
aI28
aI7
aI4308
aI25
aI16809
aI2
aI34949
aI5766
aI328
asg8
I3027
sa(dp469
g2
(lp470
I29091
aI29092
aI29093
aI29094
aI29096
aI29097
asg4
(lp471
I29095
asg6
(lp472
I14
aI15528
aI256
aI25
aI15529
aI109
aI728
aI817
aI25
aI15530
aI2
aI34953
aI10
aI137
aI973
aI25
aI478
asg8
I3028
sa(dp473
g2
(lp474
I29126
aI29127
aI29128
aI29129
aI29130
asg4
(lp475
I29125
asg6
(lp476
I1488
aI2
aI34956
asg8
I3032
sa(dp477
g2
(lp478
I29132
aI29133
aI29134
aI29135
asg4
(lp479
I29131
asg6
(lp480
I1488
aI2
aI34967
aI1614
asg8
I3033
sa(dp481
g2
(lp482
I29149
aI29150
aI29152
aI29153
aI29154
aI29155
asg4
(lp483
I29151
asg6
(lp484
I1488
aI2
aI1574
aI3851
aI5899
asg8
I3036
sa(dp485
g2
(lp486
I29156
aI29157
aI29158
aI29159
aI29160
aI29161
aI29162
aI29164
aI29165
aI29166
aI29167
aI29168
aI29169
aI29170
aI29171
aI29172
aI29173
asg4
(lp487
I29163
asg6
(lp488
I14
aI15700
aI2
aI14
aI856
aI1795
aI6472
aI1841
asg8
I3037
sa(dp489
g2
(lp490
I29175
aI29176
aI29177
aI29178
aI29179
aI29180
aI29181
aI29182
aI29183
aI29184
aI29185
aI29186
asg4
(lp491
I29174
asg6
(lp492
I1488
aI2
aI919
aI3429
aI7159
asg8
I3038
sa(dp493
g2
(lp494
I29188
aI29189
aI29190
aI29191
asg4
(lp495
I29187
asg6
(lp496
I1488
aI2
aI3379
aI109
aI6189
aI795
asg8
I3039
sa(dp497
g2
(lp498
I29192
aI29193
aI29195
asg4
(lp499
I29194
asg6
(lp500
I1488
aI2
aI14
aI161
aI25
aI14
aI1241
aI463
aI1093
aI14
aI15954
aI3301
aI22
aI25757
asg8
I3040
sa(dp501
g2
(lp502
I29196
aI29198
asg4
(lp503
I29197
asg6
(lp504
I16209
aI16718
aI2
aI14
aI24370
aI16209
aI16718
aI2
aI8424
aI60
aI7
aI4564
aI22
aI13484
asg8
I3041
sa(dp505
g2
(lp506
I29210
aI29211
aI29212
aI29213
aI29214
aI29215
asg4
(lp507
I29209
asg6
(lp508
I1488
aI2
aI14
aI161
aI25
aI3383
aI10893
aI109
aI1435
aI6
asg8
I3043
sa(dp509
g2
(lp510
I29241
aI29242
aI29243
aI29244
aI29245
aI29246
aI29247
aI29248
aI29249
aI29250
aI29251
aI29252
aI29253
aI29254
aI29255
aI29256
aI29257
asg4
(lp511
sg6
(lp512
I1488
aI2
aI4423
aI6500
aI515
aI173
aI6
asg8
I3046
sa.