(lp0
(dp1
S'bad'
p2
(lp3
I20360
aI20361
aI20362
aI20363
aI20364
asS'good'
p4
(lp5
I20365
asS'question'
p6
(lp7
I41
aI928
aI56
aI7
aI554
aI929
aI930
aI3455
aI1314
aI7
aI30031
aI56
aI2
aI1024
asS'question_id'
p8
I2118
sa(dp9
g2
(lp10
I20377
aI20378
aI20379
aI20380
aI20382
asg4
(lp11
I20381
asg6
(lp12
I173
aI2043
aI416
aI2002
aI5
aI538
aI753
aI451
asg8
I2120
sa(dp13
g2
(lp14
I20383
aI20384
aI20385
aI20387
asg4
(lp15
I20386
asg6
(lp16
I1227
aI56
aI1228
aI1229
aI1305
aI7
aI13327
aI30042
aI776
aI1308
aI540
aI30043
asg8
I2121
sa(dp17
g2
(lp18
I20388
aI20393
aI20394
aI20395
aI20396
aI20397
aI20398
aI20399
aI20400
aI20401
aI20402
aI20403
aI20404
aI20405
aI20406
aI20407
aI20408
aI20409
asg4
(lp19
I20389
aI20390
aI20391
aI20392
asg6
(lp20
I866
aI374
aI51
aI867
aI331
aI137
aI720
aI51
aI868
aI7
aI1575
aI31
aI41
asg8
I2122
sa(dp21
g2
(lp22
I20460
aI20461
aI20462
aI20463
aI20465
aI20466
aI20467
asg4
(lp23
I20464
asg6
(lp24
I24
aI2420
aI1128
aI1000
aI7
aI1955
aI41
aI2155
asg8
I2127
sa(dp25
g2
(lp26
I20468
aI20469
aI20470
aI20471
aI20472
aI20474
aI20475
aI20476
aI20477
asg4
(lp27
I20473
asg6
(lp28
I5
aI1066
aI29
aI7
aI5
aI676
aI29
aI30
aI954
aI1065
aI451
aI31
aI1066
aI103
aI37
aI451
aI754
aI340
aI7
aI30095
aI2316
aI98
aI12900
aI10
asg8
I2128
sa(dp29
g2
(lp30
I20575
aI20576
aI20577
aI20578
aI20579
aI20580
asg4
(lp31
I20573
aI20574
asg6
(lp32
I753
aI997
aI178
aI365
aI171
aI110
aI558
aI740
aI72
aI1446
aI111
aI51
aI77
aI1447
aI1190
aI56
aI954
aI1065
aI451
aI178
aI165
aI2
aI754
aI216
aI30159
aI563
aI451
asg8
I2137
sa(dp33
g2
(lp34
I20581
aI20582
asg4
(lp35
I20583
asg6
(lp36
I430
aI2432
aI4
aI876
aI335
aI1469
aI2282
aI13
aI30164
aI21976
asg8
I2138
sa(dp37
g2
(lp38
I20584
aI20585
aI20586
aI20587
aI20588
aI20589
aI20590
aI20591
aI20592
aI20594
aI20595
aI20596
aI20597
aI20598
aI20599
asg4
(lp39
I20593
asg6
(lp40
I489
aI490
aI77
aI491
aI492
aI493
aI494
aI7
aI495
aI116
aI2
aI496
aI36
aI497
aI56
aI498
aI311
aI499
aI500
aI501
aI127
aI311
aI502
aI216
aI30166
aI30167
aI891
aI1642
asg8
I2139
sa(dp41
g2
(lp42
I20603
aI20604
aI20605
aI20606
aI20608
aI20609
aI20610
aI20611
aI20612
asg4
(lp43
I20607
asg6
(lp44
I510
aI51
aI41
aI557
aI72
aI41
aI122
aI51
aI77
aI1034
aI178
aI406
aI1000
aI216
aI30179
aI3955
asg8
I2141
sa(dp45
g2
(lp46
I20632
aI20633
aI20636
aI20637
aI20638
aI20639
asg4
(lp47
I20634
aI20635
asg6
(lp48
I543
aI7
aI30209
aI1529
aI3415
aI20
aI508
aI1508
asg8
I2144
sa(dp49
g2
(lp50
I20640
aI20641
aI20643
aI20644
aI20645
asg4
(lp51
I20642
asg6
(lp52
I575
aI2
aI729
aI7
aI3399
aI13
aI5
aI3400
aI51
aI2
aI3259
aI3401
aI7
aI398
aI56
aI103
aI5
aI1971
aI216
aI2185
aI238
aI21273
asg8
I2145
sa(dp53
g2
(lp54
I20646
aI20647
aI20649
aI20650
aI20651
aI20652
aI20653
asg4
(lp55
I20648
asg6
(lp56
I1502
aI591
aI2590
aI2209
aI41
aI254
aI1041
aI110
aI5555
aI2
aI1041
aI4
aI2
aI5556
aI111
aI77
aI942
aI5557
aI519
aI1874
aI1508
asg8
I2146
sa(dp57
g2
(lp58
I20654
aI20656
aI20658
aI20659
aI20660
aI20661
aI20662
asg4
(lp59
I20655
aI20657
asg6
(lp60
I1734
aI98
aI861
aI1508
aI1032
aI216
aI7489
aI1174
aI20
aI825
aI2
aI7474
asg8
I2147
sa(dp61
g2
(lp62
I20693
aI20695
aI20696
asg4
(lp63
I20694
asg6
(lp64
I5
aI247
aI7
aI5
aI2245
aI72
aI8418
aI110
aI72
aI8419
aI111
aI6409
aI664
aI41
aI5
aI2629
aI4
aI1558
aI3678
aI519
aI2528
aI4783
aI521
aI72
aI3486
aI51
aI2848
aI4
aI408
aI51
aI72
aI8420
aI113
aI56
aI2
aI2265
aI65
aI12429
aI1758
aI216
asg8
I2152
sa(dp65
g2
(lp66
I20756
aI20757
asg4
(lp67
I20754
aI20755
asg6
(lp68
I2
aI4783
aI77
aI5447
aI5013
aI519
aI20
aI5
aI3302
aI216
aI30308
aI346
asg8
I2161
sa(dp69
g2
(lp70
sg4
(lp71
I20821
aI20822
aI20823
asg6
(lp72
I3687
aI3688
aI59
aI2
aI3689
aI1688
aI41
aI5
aI506
aI3690
aI30
aI7
aI3691
aI3692
aI56
aI3693
aI51
aI2631
aI2
aI34
aI56
aI2
aI3694
aI1878
aI216
aI5
aI492
aI493
aI496
aI451
asg8
I2166
sa(dp73
g2
(lp74
I20846
aI20848
aI20849
asg4
(lp75
I20847
asg6
(lp76
I5
aI12294
aI7
aI5
aI3892
aI9
aI4
aI629
aI30
aI1493
aI3297
aI8162
aI56
aI37
aI516
aI41
aI2
aI99
aI3189
aI4
aI1010
aI1011
aI367
aI1921
aI7
aI2
aI972
aI776
aI3126
aI3127
aI7
aI1436
asg8
I2169
sa(dp77
g2
(lp78
I20929
aI20931
aI20932
aI20933
aI20934
aI20936
aI20937
aI20938
aI20939
aI20940
aI20941
aI20942
aI20943
aI20944
aI20945
aI20946
aI20947
aI20948
aI20949
asg4
(lp79
I20930
aI20935
asg6
(lp80
I138
aI382
aI7
aI2855
aI540
asg8
I2178
sa(dp81
g2
(lp82
I20950
aI20952
aI20954
aI20955
aI20956
aI20957
aI20958
aI20959
aI20960
aI20961
aI20962
aI20963
asg4
(lp83
I20951
aI20953
asg6
(lp84
I11258
aI14126
aI100
aI216
aI29441
aI29442
aI216
asg8
I2179
sa(dp85
g2
(lp86
I20977
aI20978
aI20979
aI20980
aI20981
aI20982
aI20983
aI20984
aI20985
aI20986
aI20987
aI20988
aI20989
aI20990
aI20991
aI20992
asg4
(lp87
I20976
asg6
(lp88
I2
aI1953
aI7
aI1954
aI1154
aI588
aI1955
aI1305
aI3929
aI29646
aI77
aI22750
aI30488
asg8
I2181
sa(dp89
g2
(lp90
I21022
aI21023
aI21025
aI21026
asg4
(lp91
I21024
asg6
(lp92
I9447
aI9952
aI56
aI2
aI7267
aI9953
aI77
aI9954
aI9955
aI9956
aI9957
aI51
aI2
aI7267
aI9958
aI9955
aI9956
aI9957
aI51
aI2
aI7267
aI9959
aI9955
aI9956
aI9957
aI51
aI72
aI2
aI7267
aI9960
aI9961
aI9955
aI9956
aI9957
aI154
aI4750
aI2
aI9962
aI9963
aI9956
aI9957
aI216
aI30529
aI1122
aI36
asg8
I2184
sa(dp93
g2
(lp94
I21038
aI21039
aI21040
aI21041
aI21042
aI21043
aI21044
asg4
(lp95
I21037
asg6
(lp96
I1112
aI303
aI1611
aI7
aI5227
aI8372
aI1611
asg8
I2186
sa(dp97
g2
(lp98
I21062
aI21064
aI21065
aI21066
aI21067
aI21068
aI21069
asg4
(lp99
I21063
asg6
(lp100
I2
aI1953
aI7
aI1954
aI1154
aI588
aI1955
aI95
aI1016
aI7
aI146
aI41
aI2
aI1017
aI3196
aI10
asg8
I2189
sa(dp101
g2
(lp102
I21071
asg4
(lp103
I21072
aI21073
asg6
(lp104
I1856
aI1788
aI425
aI1254
aI20
aI2
aI4971
aI4972
aI4973
aI110
aI4974
aI111
aI871
aI4
aI2758
aI13
aI2158
aI7
aI950
asg8
I2191
sa(dp105
g2
(lp106
I21081
aI21082
aI21083
asg4
(lp107
I21084
asg6
(lp108
I688
aI408
aI216
aI986
aI174
aI979
aI113
aI825
aI2
aI1052
asg8
I2193
sa(dp109
g2
(lp110
I21085
aI21086
aI21088
aI21089
aI21090
aI21091
aI21092
aI21093
aI21094
aI21095
asg4
(lp111
I21087
asg6
(lp112
I2003
aI2004
aI1705
aI95
aI2142
aI7
aI577
aI4
aI2
aI9223
asg8
I2194
sa(dp113
g2
(lp114
I21114
aI21116
asg4
(lp115
I21115
asg6
(lp116
I1066
aI29
aI7
aI1277
aI760
aI29
aI51
aI1035
aI2
aI451
aI754
aI7
aI506
aI20
aI2
aI760
aI1144
aI95
aI30605
aI13
aI5
aI433
asg8
I2197
sa(dp117
g2
(lp118
I21117
aI21118
aI21120
aI21121
aI21122
aI21123
aI21124
aI21125
aI21126
aI21127
aI21128
aI21129
aI21130
aI21131
aI21132
asg4
(lp119
I21119
asg6
(lp120
I5403
aI5404
aI5405
aI65
aI7
aI242
aI178
aI2813
asg8
I2198
sa(dp121
g2
(lp122
I21141
aI21142
aI21144
aI21145
aI21146
aI21147
aI21148
aI21149
aI21150
aI21151
aI21152
aI21153
aI21154
aI21155
aI21156
asg4
(lp123
I21143
asg6
(lp124
I497
aI1335
aI1856
aI110
aI6177
aI111
aI2789
aI7
aI20037
aI2112
aI41
asg8
I2200
sa(dp125
g2
(lp126
I21158
asg4
(lp127
I21157
asg6
(lp128
I5
aI1450
aI154
aI7
aI4140
aI20
aI1
aI2
aI3855
aI4340
aI216
aI5
aI672
aI1258
aI1168
aI1669
aI762
asg8
I2201
sa(dp129
g2
(lp130
I21216
aI21217
aI21218
aI21220
aI21221
asg4
(lp131
I21219
asg6
(lp132
I267
aI7
aI2394
aI13
aI311
aI7032
aI4
aI2
aI7033
aI77
aI311
aI7034
aI56
aI31
aI311
aI1568
aI4365
aI51
aI2
aI1296
aI1046
aI4365
aI4
aI2
aI4741
aI7035
aI216
aI1620
aI8945
aI2455
aI4
aI10
asg8
I2208
sa(dp133
g2
(lp134
I21257
aI21259
aI21260
aI21261
asg4
(lp135
I21258
asg6
(lp136
I237
aI2992
aI1930
aI825
aI237
aI2415
aI103
aI5
aI1088
aI51
aI1129
aI51
aI5886
aI77
aI5885
aI51
aI4373
aI5
aI6721
aI6722
aI13
aI2
aI6723
aI36
aI237
aI812
aI6724
aI1719
aI16001
aI51
aI15961
aI183
aI2667
aI5
aI1805
aI1457
aI41
aI2
aI3139
aI974
aI103
aI5
aI6726
aI51
aI6727
aI77
aI6728
aI216
aI29000
aI216
aI56
aI672
aI10
asg8
I2214
sa(dp137
g2
(lp138
I21278
aI21280
aI21281
aI21282
aI21283
aI21284
asg4
(lp139
I21279
asg6
(lp140
I885
aI470
aI41
aI886
aI887
aI30707
aI10927
aI637
aI7
aI540
asg8
I2216
sa(dp141
g2
(lp142
I21315
aI21317
aI21318
aI21319
asg4
(lp143
I21316
asg6
(lp144
I13621
aI2428
aI184
aI103
aI13622
aI216
aI23347
aI41
aI30744
aI30745
aI346
asg8
I2220
sa(dp145
g2
(lp146
I21320
aI21321
aI21324
aI21325
asg4
(lp147
I21322
aI21323
asg6
(lp148
I2549
aI95
aI1183
aI41
aI5
aI10070
aI2276
aI4
aI330
asg8
I2221
sa(dp149
g2
(lp150
I21419
aI21420
aI21421
aI21422
aI21423
aI21424
aI21425
aI21427
asg4
(lp151
I21426
asg6
(lp152
I866
aI374
aI51
aI867
aI331
aI137
aI720
aI51
aI868
aI1000
aI4
aI1024
aI2964
aI216
aI2965
aI540
aI514
asg8
I2236
sa(dp153
g2
(lp154
I21429
aI21430
aI21431
aI21432
asg4
(lp155
I21428
asg6
(lp156
I1573
aI197
aI362
aI7
aI467
asg8
I2237
sa(dp157
g2
(lp158
I21433
aI21434
aI21435
asg4
(lp159
I21436
asg6
(lp160
I31
aI5
aI638
aI4
aI2
aI740
aI741
aI4
aI5
aI742
aI51
aI743
aI72
aI744
aI745
aI77
aI746
aI747
aI628
aI748
aI4
aI2
aI745
aI110
aI749
aI747
aI51
aI750
aI747
aI51
aI751
aI747
aI51
aI72
aI192
aI418
aI9
aI4
aI752
aI747
aI111
aI56
aI753
aI5
aI754
aI49
aI216
aI15454
aI2802
aI1276
aI56
aI7411
aI10
asg8
I2238
sa(dp161
g2
(lp162
I21437
aI21438
aI21439
aI21440
aI21442
aI21443
aI21444
asg4
(lp163
I21441
asg6
(lp164
I30
aI190
aI1262
aI2271
aI92
aI7
aI2770
aI41
aI1866
aI1263
aI36
aI41
aI2771
aI2772
aI2
aI1010
aI1011
aI51
aI52
aI1420
aI7
aI293
aI2773
aI16
aI191
aI95
aI1611
aI7
aI41
aI5
aI12989
aI393
asg8
I2239
sa(dp165
g2
(lp166
I21455
aI21456
aI21457
aI21458
aI21459
aI21460
aI21461
aI21462
aI21463
asg4
(lp167
I21454
asg6
(lp168
I7
aI5
aI1314
aI784
aI7902
aI20
aI2
aI261
aI4
aI4821
aI51
aI721
aI5323
aI825
aI2
aI4155
aI1798
aI1799
aI56
aI1794
aI2
aI1793
aI2063
aI2789
aI7
aI30847
aI5203
aI41
asg8
I2241
sa(dp169
g2
(lp170
I21499
aI21501
aI21502
aI21503
aI21504
aI21505
asg4
(lp171
I21500
asg6
(lp172
I261
aI4
aI4821
aI51
aI1296
aI4824
aI51
aI4823
aI51
aI4825
aI4826
aI51
aI4819
aI51
aI1296
aI1297
aI51
aI1296
aI5889
aI51
aI5890
aI51
aI4822
aI51
aI5891
aI51
aI886
aI5892
aI51
aI5893
aI5892
aI51
aI4865
aI51
aI77
aI4770
aI629
aI7
aI7166
aI6331
aI178
asg8
I2244
sa(dp173
g2
(lp174
I21506
aI21507
aI21508
aI21509
aI21510
aI21511
aI21513
aI21514
aI21515
asg4
(lp175
I21512
asg6
(lp176
I5
aI28
aI29
aI30
aI31
aI32
aI33
aI34
aI35
aI36
aI9
aI37
aI27
aI38
aI39
aI28
aI95
aI1213
aI13
aI5
aI301
aI7710
asg8
I2245
sa(dp177
g2
(lp178
I21517
aI21518
aI21519
aI21520
aI21521
aI21522
aI21523
aI21524
aI21525
aI21526
aI21527
aI21528
asg4
(lp179
I21516
asg6
(lp180
I2966
aI2805
aI154
aI70
aI2
aI1284
aI4384
aI20
aI418
aI1284
aI216
aI904
aI7969
aI2110
asg8
I2246
sa(dp181
g2
(lp182
I21544
aI21545
aI21546
aI21547
aI21548
aI21549
aI21550
aI21551
aI21552
aI21553
aI21555
aI21556
aI21557
aI21558
aI21559
aI21560
aI21561
aI21562
aI21563
asg4
(lp183
I21554
asg6
(lp184
I334
aI963
aI4
aI2
aI190
aI1574
aI191
aI4
aI5
aI1575
aI59
aI5
aI1576
aI110
aI5
aI2194
aI2195
aI56
aI5
aI1571
aI111
aI30
aI7
aI973
aI36
aI254
aI2196
aI2197
aI110
aI2198
aI2195
aI56
aI5
aI609
aI111
aI13
aI5
aI2199
aI51
aI1685
aI395
aI430
aI2194
aI56
aI2200
aI1623
aI98
aI2201
aI216
aI783
aI2365
aI2366
aI219
aI10
asg8
I2250
sa(dp185
g2
(lp186
I21564
aI21565
aI21566
aI21567
aI21568
aI21569
aI21570
aI21571
aI21573
aI21574
aI21575
asg4
(lp187
I21572
asg6
(lp188
I1411
aI1555
aI1556
aI1438
aI95
aI591
aI7
aI41
aI2
aI595
aI4
aI3026
asg8
I2251
sa(dp189
g2
(lp190
I21590
aI21591
aI21593
aI21594
aI21595
aI21596
aI21597
aI21598
aI21599
aI21600
asg4
(lp191
I21592
asg6
(lp192
I5
aI82
aI540
aI178
aI5
aI599
aI51
aI825
aI5925
aI51
aI2989
aI2
aI3150
aI599
aI243
aI12945
aI4332
aI56
aI12921
aI620
aI37
aI1484
aI216
aI7822
aI9660
aI3920
aI56
aI2
aI1314
aI471
asg8
I2253
sa(dp193
g2
(lp194
I21603
aI21604
aI21605
aI21606
asg4
(lp195
I21601
aI21602
aI21607
asg6
(lp196
I59
aI828
aI1076
aI56
aI448
aI1229
aI4
aI10203
aI7425
aI739
aI588
aI1004
aI110
aI1076
aI331
aI448
aI1229
aI2857
aI9018
aI111
aI4
aI3585
aI216
aI5742
aI346
aI41
aI4724
asg8
I2254
sa(dp197
g2
(lp198
I21608
aI21609
aI21611
aI21612
aI21613
asg4
(lp199
I21610
asg6
(lp200
I1581
aI1582
aI56
aI2
aI1010
aI1011
aI178
aI1583
aI4
aI2
aI1584
aI231
aI1585
aI411
aI216
aI13045
aI1686
aI451
asg8
I2255
sa(dp201
g2
(lp202
I21618
aI21619
aI21620
aI21621
aI21622
aI21623
aI21624
aI21625
aI21626
aI21627
aI21628
aI21629
asg4
(lp203
I21630
asg6
(lp204
I2
aI430
aI431
aI432
aI4
aI433
aI7
aI2
aI434
aI51
aI72
aI435
aI433
aI51
aI154
aI7
aI436
aI56
aI2
aI437
aI438
aI77
aI2
aI439
aI4
aI440
aI307
aI77
aI2
aI441
aI51
aI72
aI442
aI433
aI51
aI154
aI443
aI444
aI445
aI216
aI6140
aI23873
aI219
asg8
I2257
sa(dp205
g2
(lp206
I21632
aI21633
aI21634
asg4
(lp207
I21631
asg6
(lp208
I7976
aI77
aI7977
aI4
aI7978
aI7979
aI51
aI6801
aI51
aI7980
aI77
aI904
aI1263
aI1144
aI519
aI5
aI454
aI11313
aI23380
asg8
I2258
sa(dp209
g2
(lp210
I21675
aI21676
aI21677
aI21679
aI21680
aI21681
aI21682
aI21683
aI21684
aI21685
aI21686
aI21687
aI21688
aI21689
asg4
(lp211
I21678
asg6
(lp212
I2
aI308
aI328
aI3537
aI7
aI178
aI1583
aI4
aI696
aI328
aI697
aI102
aI103
aI2
aI254
aI3538
aI41
aI3539
aI178
aI3540
aI3541
aI3542
aI41
aI3543
aI77
aI1246
aI41
aI3544
aI7
aI2
aI348
aI121
aI41
aI2
aI2154
aI1052
asg8
I2263
sa(dp213
g2
(lp214
I21728
aI21729
asg4
(lp215
I21727
asg6
(lp216
I5
aI3892
aI9
aI4
aI629
aI30
aI1493
aI3297
aI8162
aI56
aI37
aI516
aI41
aI2
aI99
aI3189
aI4
aI1010
aI1011
aI367
aI2789
aI7
aI30975
aI5205
aI41
aI10
asg8
I2267
sa(dp217
g2
(lp218
I21749
aI21750
aI21751
aI21752
aI21753
aI21754
aI21755
aI21756
aI21757
aI21759
aI21760
aI21761
aI21762
aI21763
asg4
(lp219
I21758
asg6
(lp220
I1392
aI377
aI1393
aI95
aI2830
aI41
aI1024
asg8
I2269
sa(dp221
g2
(lp222
I21768
aI21771
aI21772
aI21773
asg4
(lp223
I21769
aI21770
asg6
(lp224
I753
aI997
aI178
aI365
aI171
aI110
aI558
aI740
aI72
aI1446
aI111
aI51
aI77
aI1447
aI1190
aI56
aI954
aI1065
aI451
aI178
aI165
aI2
aI754
aI95
aI7059
aI1412
aI41
aI2
aI381
aI1208
aI10
asg8
I2271
sa(dp225
g2
(lp226
I21781
aI21783
aI21784
aI21785
aI21786
aI21787
aI21788
aI21789
aI21790
aI21791
aI21792
aI21793
aI21794
asg4
(lp227
I21782
asg6
(lp228
I389
aI243
aI408
aI409
aI459
aI95
aI335
aI13
aI5
aI748
aI36
aI5
aI4587
aI337
asg8
I2273
sa(dp229
g2
(lp230
I21810
aI21811
aI21812
aI21813
aI21814
aI21815
aI21816
aI21817
aI21818
aI21819
aI21820
aI21821
aI21822
aI21823
aI21824
aI21825
aI21826
asg4
(lp231
I21809
asg6
(lp232
I1105
aI6281
aI340
aI56
aI777
aI31015
aI31016
asg8
I2275
sa(dp233
g2
(lp234
I21836
aI21838
aI21839
aI21840
aI21841
aI21842
aI21843
aI21844
aI21845
aI21846
aI21847
aI21848
aI21849
aI21850
aI21851
aI21852
asg4
(lp235
I21837
asg6
(lp236
I572
aI94
aI5
aI5472
asg8
I2277
sa(dp237
g2
(lp238
I21864
aI21865
aI21867
aI21868
aI21869
aI21870
aI21871
aI21872
aI21873
aI21874
aI21875
aI21876
asg4
(lp239
I21866
asg6
(lp240
I1349
aI98
aI2
aI8989
aI9011
aI77
aI2
aI3308
aI2032
aI2
aI1161
aI4
aI5
aI8989
aI1611
aI7
aI46
aI7218
aI1027
aI10
asg8
I2279
sa(dp241
g2
(lp242
I21877
aI21878
aI21879
aI21880
aI21881
aI21882
aI21883
aI21884
aI21885
aI21886
aI21887
aI21888
aI21889
aI21890
aI21891
aI21892
aI21893
aI21895
aI21896
aI21897
aI21898
aI21899
asg4
(lp243
I21894
asg6
(lp244
I20
aI719
aI285
aI51
aI2917
aI51
aI56
aI866
aI773
aI51
aI2926
aI95
aI8273
aI243
aI22782
aI3881
aI1889
asg8
I2280
sa(dp245
g2
(lp246
I21948
asg4
(lp247
I21947
asg6
(lp248
I2178
aI1920
aI2659
aI178
aI127
aI2660
aI95
aI1733
aI3382
aI1412
aI41
aI707
asg8
I2286
sa(dp249
g2
(lp250
I21967
aI21968
aI21969
aI21970
aI21971
aI21975
asg4
(lp251
I21972
aI21973
aI21974
aI21976
asg6
(lp252
I2
aI7122
aI110
aI111
aI7
aI5
aI7123
aI13
aI2
aI7124
aI7125
aI51
aI7126
aI51
aI7127
aI56
aI2
aI7128
aI7129
aI7130
aI51
aI1100
aI2
aI471
aI4
aI7131
aI1639
aI311
aI7132
aI7133
aI2224
aI56
aI1696
aI16292
aI13
aI11484
aI174
aI8943
aI10
asg8
I2288
sa(dp253
g2
(lp254
I22031
aI22032
aI22033
aI22034
aI22035
aI22036
aI22037
aI22038
aI22039
aI22040
aI22041
aI22042
aI22043
asg4
(lp255
I22044
asg6
(lp256
I2
aI99
aI3189
aI4
aI7909
aI41
aI2
aI1010
aI7910
aI1412
aI41
aI3539
aI77
aI7911
aI147
aI4
aI627
aI7909
aI1159
aI127
aI2
aI144
aI4158
aI51
aI7912
aI7
aI1412
aI41
aI3539
aI77
aI7911
aI51
aI1035
aI311
aI9
aI1511
aI1128
aI4
aI2
aI47
aI41
aI144
aI307
aI7913
aI7
aI1412
aI41
aI1964
aI51
aI9
aI7914
aI1128
aI4
aI2
aI47
aI307
aI77
aI7915
aI7
aI1412
aI41
aI7337
aI4525
aI1000
aI216
aI9798
aI7987
aI579
asg8
I2294
sa(dp257
g2
(lp258
I22111
aI22112
aI22113
aI22115
aI22117
aI22118
asg4
(lp259
I22114
aI22116
aI22119
asg6
(lp260
I992
aI184
aI103
aI1993
aI72
aI672
aI1993
aI51
aI7
aI4324
aI31
aI103
aI5
aI11575
aI72
aI5
aI11576
aI1878
aI2224
aI825
aI2
aI24864
aI278
aI41
aI26198
aI10
asg8
I2301
sa(dp261
g2
(lp262
I22174
aI22177
aI22178
asg4
(lp263
I22175
aI22176
asg6
(lp264
I8128
aI8129
aI1140
aI7
aI41
aI16407
asg8
I2306
sa(dp265
g2
(lp266
I22179
aI22180
aI22181
aI22182
aI22183
aI22185
asg4
(lp267
I22184
asg6
(lp268
I1370
aI1128
aI2519
aI31274
aI44
aI9
asg8
I2307
sa(dp269
g2
(lp270
I22313
asg4
(lp271
I22312
asg6
(lp272
I2941
aI2370
aI2789
aI7
aI31393
aI768
aI765
aI41
asg8
I2319
sa(dp273
g2
(lp274
I22351
aI22352
aI22353
aI22354
aI22355
asg4
(lp275
I22350
asg6
(lp276
I5
aI485
aI4
aI7559
aI1246
aI31
aI41
aI7007
aI103
aI5
aI3216
aI56
aI1616
aI30
aI2
aI1847
aI7
aI4140
aI178
aI5
aI1620
aI7398
aI216
aI5257
aI1494
aI346
asg8
I2324
sa(dp277
g2
(lp278
I22372
aI22373
aI22374
aI22375
aI22376
aI22377
aI22378
aI22379
aI22380
aI22381
aI22382
aI22383
aI22384
aI22385
aI22386
aI22387
aI22388
aI22389
aI22390
aI22391
asg4
(lp279
I22371
asg6
(lp280
I5841
aI2625
aI4
aI2
aI2378
aI697
aI1685
aI6184
aI6185
aI1467
aI77
aI3097
aI56
aI2285
aI7
aI18
aI13
aI5
aI11039
asg8
I2327
sa(dp281
g2
(lp282
I22424
aI22425
aI22426
aI22427
aI22428
aI22429
aI22430
aI22431
aI22432
aI22433
aI22434
aI22435
asg4
(lp283
I22423
asg6
(lp284
I8850
aI2186
aI7
aI9447
aI9952
aI56
aI2
aI7267
aI9953
aI77
aI9954
aI9955
aI9956
aI9957
aI51
aI2
aI7267
aI9958
aI9955
aI9956
aI9957
aI51
aI2
aI7267
aI9959
aI9955
aI9956
aI9957
aI51
aI72
aI2
aI7267
aI9960
aI9961
aI9955
aI9956
aI9957
aI154
aI4750
aI2
aI9962
aI9963
aI9956
aI9957
aI7
aI5
aI19980
aI2261
asg8
I2330
sa(dp285
g2
(lp286
I22436
aI22438
aI22439
aI22440
aI22441
aI22442
aI22443
aI22444
aI22445
aI22446
aI22447
asg4
(lp287
I22437
asg6
(lp288
I9234
aI1430
aI17277
aI174
aI17277
aI6735
aI17278
aI51
aI17279
aI17280
aI51
aI77
aI17281
aI17282
aI1086
aI5
aI13299
aI7
aI5
aI13299
aI7
aI5
aI13299
asg8
I2331
sa(dp289
g2
(lp290
I22448
aI22451
aI22452
aI22453
aI22454
asg4
(lp291
I22449
aI22450
asg6
(lp292
I237
aI1889
aI237
aI5381
aI1317
aI13
aI719
aI773
aI51
aI569
aI51
aI3217
aI5382
aI5383
aI1454
aI5384
aI41
aI2
aI308
aI286
aI7
aI5
aI6202
aI36
asg8
I2332
sa(dp293
g2
(lp294
I22455
aI22457
aI22458
aI22459
aI22460
aI22461
aI22462
aI22463
asg4
(lp295
I22456
asg6
(lp296
I19238
aI19689
aI238
aI2
aI1479
aI979
aI41
aI2
aI333
aI1792
aI2392
aI2393
asg8
I2333
sa(dp297
g2
(lp298
I22465
aI22466
aI22467
aI22468
aI22469
aI22470
asg4
(lp299
I22464
asg6
(lp300
I2320
aI958
aI19109
aI6163
aI59
aI8625
aI51
aI154
aI67
aI2
aI2734
aI174
aI1575
aI56
aI2
aI1311
aI77
aI65
aI4136
aI2
aI2235
aI4
aI95
aI1508
aI41
aI2
aI1311
aI7
aI5
aI31483
aI318
asg8
I2334
sa(dp301
g2
(lp302
I22471
aI22472
aI22475
aI22476
aI22477
aI22478
aI22479
aI22480
aI22481
aI22482
aI22483
aI22484
aI22485
aI22486
aI22487
aI22488
aI22489
aI22490
aI22491
aI22492
asg4
(lp303
I22473
aI22474
asg6
(lp304
I5
aI7526
aI30
aI65
aI293
aI51
aI178
aI2
aI1854
aI4104
aI2978
aI51
aI7528
aI1634
aI5
aI5926
aI1340
aI5
aI7529
aI965
aI4
aI7530
aI77
aI7
aI7531
aI56
aI113
aI37
aI1404
aI1264
aI4
aI538
aI41
aI41
aI2
aI120
asg8
I2335
sa(dp305
g2
(lp306
I22535
aI22536
aI22537
aI22538
aI22539
aI22540
aI22541
asg4
(lp307
I22534
asg6
(lp308
I5
aI806
aI975
aI974
aI7
aI5
aI1611
aI1263
aI36
aI10
asg8
I2339
sa(dp309
g2
(lp310
I22558
aI22559
aI22561
aI22562
aI22563
aI22564
aI22565
aI22566
aI22567
aI22568
asg4
(lp311
I22560
asg6
(lp312
I6151
aI77
aI116
aI2
aI229
aI216
aI5
aI14077
aI1412
asg8
I2342
sa(dp313
g2
(lp314
I22570
aI22571
aI22572
aI22573
asg4
(lp315
I22569
asg6
(lp316
I9641
aI9642
aI51
aI11537
aI11538
aI265
aI1450
aI11539
aI36
aI5632
aI110
aI2352
aI111
aI51
aI11540
aI11541
aI174
aI20
aI985
aI4
aI5619
aI36
aI5632
aI110
aI3110
aI331
aI2936
aI111
aI51
aI77
aI11542
aI11543
aI4403
aI11544
aI7
aI5
aI1284
aI4
aI7940
aI50
asg8
I2343
sa(dp317
g2
(lp318
I22574
aI22575
aI22577
aI22578
aI22579
aI22580
aI22581
aI22582
aI22583
asg4
(lp319
I22576
asg6
(lp320
I15010
aI6920
aI7
aI3423
aI2394
aI1634
aI2
aI3080
aI174
aI388
aI7484
aI307
aI6311
aI762
aI5580
aI51
aI7485
aI51
aI131
aI77
aI3915
aI261
aI7
aI783
aI18586
aI5
aI3027
aI41
aI825
aI2
aI928
aI603
asg8
I2344
sa(dp321
g2
(lp322
I22688
aI22689
aI22690
aI22691
aI22692
aI22693
aI22694
aI22695
aI22696
aI22697
aI22698
aI22699
aI22700
aI22701
aI22702
aI22703
aI22704
aI22705
aI22706
aI22707
asg4
(lp323
I22687
asg6
(lp324
I2032
aI2
aI21518
aI12200
aI110
aI8994
aI15257
aI111
aI51
aI5482
aI2
aI274
aI110
aI21234
aI15257
aI111
aI51
aI828
aI2
aI274
aI110
aI21519
aI15257
aI111
aI51
aI77
aI3158
aI2
aI21519
aI110
aI21520
aI15257
aI111
aI216
aI26304
aI1412
asg8
I2357
sa(dp325
g2
(lp326
I22708
aI22710
aI22711
aI22713
aI22714
asg4
(lp327
I22709
aI22712
asg6
(lp328
I12875
aI80
aI56
aI3597
asg8
I2358
sa(dp329
g2
(lp330
I22717
aI22718
aI22719
aI22720
aI22721
aI22722
aI22723
aI22724
asg4
(lp331
I22715
aI22716
asg6
(lp332
I13320
aI4
aI7807
aI41
aI6025
aI7
aI20874
asg8
I2359
sa(dp333
g2
(lp334
I22726
aI22727
aI22728
aI22729
aI22730
aI22731
aI22732
aI22733
aI22734
aI22735
aI22736
aI22737
aI22738
asg4
(lp335
I22725
asg6
(lp336
I5374
aI261
aI77
aI5
aI341
aI382
aI393
aI216
aI3511
aI207
aI219
asg8
I2360
sa(dp337
g2
(lp338
I22744
aI22745
asg4
(lp339
I22743
asg6
(lp340
I18135
aI4618
aI51
aI886
aI5892
aI51
aI1010
aI1011
aI821
aI4
aI1527
aI1174
aI20
asg8
I2362
sa(dp341
g2
(lp342
I22747
aI22748
aI22749
aI22750
asg4
(lp343
I22746
asg6
(lp344
I5
aI2245
aI72
aI8418
aI110
aI72
aI8419
aI111
aI6409
aI664
aI41
aI5
aI2629
aI4
aI1558
aI3678
aI519
aI2528
aI4783
aI521
aI72
aI3486
aI51
aI2848
aI4
aI408
aI51
aI72
aI8420
aI113
aI56
aI2
aI2265
aI7
aI2638
aI4
aI2
aI31635
asg8
I2363
sa(dp345
g2
(lp346
I22764
aI22765
aI22766
asg4
(lp347
I22763
asg6
(lp348
I9384
aI664
aI20
aI2
aI2443
aI6674
aI4
aI2
aI536
aI116
aI2
aI8010
aI77
aI2
aI7301
aI4
aI2
aI536
aI174
aI118
aI525
aI56
aI2
aI5994
aI4
aI6674
aI7
aI5
aI8479
aI2012
asg8
I2365
sa(dp349
g2
(lp350
I22783
aI22784
aI22786
aI22787
aI22788
aI22789
aI22790
aI22791
aI22792
aI22793
aI22794
asg4
(lp351
I22785
asg6
(lp352
I2
aI4814
aI1052
aI41
aI1314
aI846
aI7
aI365
aI3892
aI31
aI4
aI29843
asg8
I2369
sa(dp353
g2
(lp354
I22795
aI22797
aI22798
aI22799
aI22800
aI22801
aI22802
aI22803
aI22804
aI22805
aI22806
aI22807
aI22808
aI22809
aI22810
aI22811
asg4
(lp355
I22796
asg6
(lp356
I311
aI1708
aI7522
aI5564
aI3384
aI4
aI2
aI17092
aI18155
aI51
aI5835
aI56
aI2
aI17990
aI3468
aI4
aI4827
aI51
aI18653
aI56
aI2
aI6038
aI98
aI2
aI18654
aI18655
aI174
aI1708
aI7522
aI3445
aI51
aI77
aI18656
aI56
aI2
aI18657
aI9235
aI18155
aI216
aI2
aI1540
aI18747
aI1174
aI20
asg8
I2370
sa(dp357
g2
(lp358
I22812
aI22814
aI22815
asg4
(lp359
I22813
asg6
(lp360
I6418
aI1006
aI77
aI6419
aI1540
aI31
aI41
aI6420
aI51
aI56
aI6421
aI6422
aI51
aI49
aI20
aI2
aI1010
aI1011
aI1102
aI216
aI7612
aI2125
aI238
aI36
aI1377
aI540
aI105
aI41
aI56
aI2
aI7197
asg8
I2371
sa(dp361
g2
(lp362
I22817
aI22818
asg4
(lp363
I22816
asg6
(lp364
I806
aI975
aI7
aI629
aI30
aI1493
aI1249
aI13
aI5
aI8111
aI1568
aI72
aI3801
aI36
aI31
aI178
aI4797
aI51
aI103
aI727
aI103
aI1493
aI5953
aI10559
aI51
aI558
aI41
aI5
aI194
aI135
aI499
aI7
aI2
aI14035
asg8
I2372
sa(dp365
g2
(lp366
I22830
aI22831
aI22832
aI22833
aI22834
asg4
(lp367
I22829
asg6
(lp368
I2
aI4645
aI515
aI308
aI77
aI1377
aI2
aI5626
aI243
aI5627
aI3857
aI2
aI4645
aI98
aI3585
aI51
aI154
aI346
aI30
aI2875
aI7
aI5628
aI193
aI4
aI1102
aI7
aI8168
asg8
I2374
sa(dp369
g2
(lp370
I22835
aI22836
aI22837
aI22838
aI22839
aI22840
aI22841
aI22842
aI22843
aI22845
aI22846
aI22847
aI22848
aI22849
aI22850
aI22851
aI22852
aI22853
aI22854
aI22855
aI22856
aI22857
asg4
(lp371
I22844
asg6
(lp372
I5672
aI2384
aI4
aI8173
aI122
aI4
aI2
aI151
aI174
aI2194
aI7
aI1578
aI56
aI2455
aI4
aI6384
aI1672
asg8
I2375
sa(dp373
g2
(lp374
I22866
aI22869
aI22870
asg4
(lp375
I22867
aI22868
asg6
(lp376
I9641
aI9642
aI51
aI11537
aI11538
aI265
aI1450
aI11539
aI36
aI5632
aI110
aI2352
aI111
aI51
aI11540
aI11541
aI174
aI20
aI985
aI4
aI5619
aI36
aI5632
aI110
aI3110
aI331
aI2936
aI111
aI51
aI77
aI11542
aI11543
aI4403
aI11544
aI7
aI5
aI12290
aI333
asg8
I2377
sa(dp377
g2
(lp378
I22872
aI22873
aI22874
aI22875
aI22876
aI22877
aI22878
aI22879
aI22880
aI22881
aI22882
aI22883
aI22884
aI22885
aI22886
aI22887
aI22888
aI22889
aI22890
aI22891
aI22892
aI22893
aI22894
aI22895
aI22896
aI22897
aI22898
aI22899
aI22900
asg4
(lp379
I22871
asg6
(lp380
I8090
aI2025
aI72
aI1135
aI2025
aI7
aI5
aI2913
aI471
aI999
asg8
I2378
sa(dp381
g2
(lp382
I22901
aI22903
aI22904
aI22905
aI22906
aI22907
aI22908
asg4
(lp383
I22902
asg6
(lp384
I4655
aI56
aI31
aI31763
asg8
I2379
sa(dp385
g2
(lp386
I22983
aI22984
aI22985
aI22986
aI22987
asg4
(lp387
I22982
asg6
(lp388
I1086
aI77
aI1382
aI178
aI2
aI17481
aI17482
aI77
aI1432
aI17483
aI17484
aI51
aI17485
aI17486
aI51
aI17487
aI17488
aI51
aI9232
aI17489
aI51
aI77
aI17490
aI17491
aI14051
aI329
aI14692
asg8
I2384
sa(dp389
g2
(lp390
I22994
aI22995
aI22997
aI22998
aI22999
aI23000
aI23001
aI23002
aI23003
aI23004
aI23005
aI23006
aI23007
aI23008
aI23009
aI23010
aI23011
aI23012
aI23013
aI23014
asg4
(lp391
I22996
asg6
(lp392
I5
aI743
aI5386
aI5387
aI4
aI2
aI5388
aI1502
aI7
aI31829
aI5118
asg8
I2386
sa(dp393
g2
(lp394
I23019
aI23021
aI23022
aI23023
aI23024
aI23025
aI23026
aI23027
aI23028
aI23029
aI23030
aI23031
aI23032
aI23033
asg4
(lp395
I23020
asg6
(lp396
I7333
aI51
aI7334
aI51
aI7335
aI51
aI7336
aI110
aI398
aI56
aI7337
aI7338
aI111
aI51
aI7339
aI51
aI5241
aI51
aI7340
aI110
aI398
aI56
aI233
aI7338
aI111
aI51
aI7341
aI51
aI7342
aI51
aI7343
aI77
aI7344
aI110
aI398
aI56
aI233
aI7345
aI111
aI393
aI7
aI7832
aI1743
aI56
aI7186
aI2242
asg8
I2388
sa(dp397
g2
(lp398
I23035
aI23036
aI23037
aI23038
aI23039
aI23040
aI23041
aI23042
aI23043
aI23044
aI23045
aI23046
asg4
(lp399
I23034
asg6
(lp400
I801
aI9038
aI2102
aI41
aI1083
aI7
aI5
aI31854
aI1122
aI36
aI794
aI10224
asg8
I2389
sa(dp401
g2
(lp402
I23057
asg4
(lp403
I23056
asg6
(lp404
I127
aI5039
aI51
aI6084
aI51
aI6085
aI72
aI1137
aI127
aI7
aI5
aI23335
aI6152
asg8
I2392
sa(dp405
g2
(lp406
I23059
aI23060
aI23061
aI23062
asg4
(lp407
I23058
asg6
(lp408
I18693
aI18694
aI6017
aI3343
aI2242
aI825
aI23336
asg8
I2393
sa(dp409
g2
(lp410
sg4
(lp411
I23063
asg6
(lp412
I2394
aI191
aI7
aI5
aI2683
aI30
aI1122
aI36
aI114
aI4273
aI4
aI117
aI85
aI20
aI154
aI254
aI65
aI5855
aI147
aI618
aI51
aI7519
aI51
aI3012
aI110
aI5030
aI111
aI51
aI77
aI151
aI110
aI7520
aI111
aI393
aI7
aI2
aI31867
aI31868
aI808
asg8
I2394
sa(dp413
g2
(lp414
I23076
aI23077
aI23078
aI23079
aI23080
aI23081
aI23082
aI23084
aI23085
aI23086
aI23087
aI23089
aI23090
aI23091
aI23092
aI23093
aI23094
aI23095
aI23096
aI23097
aI23098
asg4
(lp415
I23083
aI23088
asg6
(lp416
I825
aI5
aI4177
aI13745
aI216
aI2
aI5222
aI2701
aI2346
aI10
asg8
I2396
sa(dp417
g2
(lp418
I23101
aI23103
aI23104
asg4
(lp419
I23102
asg6
(lp420
I577
aI7
aI6721
aI4332
aI30
aI2
aI7539
aI127
aI11248
aI243
aI159
aI56
aI11249
aI825
aI2
aI24864
aI278
aI7
aI2
aI4642
aI77
aI4646
aI4647
aI4
aI2
aI520
aI10
asg8
I2398
sa(dp421
g2
(lp422
I23105
asg4
(lp423
I23106
asg6
(lp424
I2
aI308
aI4
aI114
aI1184
aI1240
aI486
aI127
aI2
aI4765
aI4766
aI1046
aI4767
aI41
aI4768
aI4769
aI51
aI4770
aI122
aI4
aI2
aI4048
aI216
aI4049
aI7731
aI1174
aI20
asg8
I2399
sa(dp425
g2
(lp426
I23123
aI23124
aI23126
aI23127
aI23128
aI23129
aI23130
aI23131
aI23132
aI23133
aI23134
aI23135
aI23136
aI23137
aI23138
aI23139
asg4
(lp427
I23125
asg6
(lp428
I11680
aI11681
aI41
aI4865
aI77
aI9671
aI11682
aI41
aI4821
aI7
aI2
aI122
aI4
aI1168
aI2497
aI10
asg8
I2402
sa(dp429
g2
(lp430
I23140
aI23142
asg4
(lp431
I23141
asg6
(lp432
I4155
aI7
aI5
aI4883
aI9572
asg8
I2403
sa(dp433
g2
(lp434
I23193
aI23194
aI23195
aI23196
aI23197
aI23198
aI23199
aI23200
aI23201
aI23202
aI23203
aI23204
aI23205
aI23206
aI23207
aI23208
aI23209
aI23211
aI23212
aI23213
aI23214
aI23215
aI23216
aI23217
aI23218
aI23219
aI23220
aI23221
asg4
(lp435
I23210
asg6
(lp436
I1729
aI10236
aI216
aI31914
aI308
aI1416
asg8
I2406
sa(dp437
g2
(lp438
I23224
aI23225
aI23226
aI23227
aI23228
aI23229
aI23230
aI23231
aI23232
aI23233
aI23234
asg4
(lp439
I23222
aI23223
asg6
(lp440
I17522
aI17523
aI6699
aI7
aI31854
aI4
aI104
asg8
I2407
sa(dp441
g2
(lp442
I23236
aI23237
aI23238
aI23239
aI23240
asg4
(lp443
I23235
asg6
(lp444
I3920
aI2
aI1390
aI4
aI2
aI2016
aI178
aI6462
aI77
aI5099
aI12287
aI4
aI12288
aI72
aI3185
aI4
aI3683
aI7
aI1805
aI6475
aI1857
asg8
I2408
sa(dp445
g2
(lp446
I23249
aI23250
aI23251
aI23252
aI23253
aI23254
aI23255
asg4
(lp447
I23248
asg6
(lp448
I5
aI609
aI1774
aI41
aI2
aI2558
aI4
aI2
aI4537
aI3077
aI4
aI2061
aI41
aI1910
aI51
aI103
aI727
aI103
aI2
aI471
aI174
aI2063
aI4
aI2061
aI110
aI17846
aI111
aI77
aI2
aI17847
aI17848
aI110
aI17849
aI72
aI17850
aI111
aI825
aI2
aI2061
aI1799
aI14051
aI426
aI1579
aI56
aI961
aI98
aI28671
asg8
I2411
sa(dp449
g2
(lp450
I23257
aI23258
aI23259
aI23260
aI23261
aI23262
aI23263
aI23264
aI23265
aI23266
aI23267
aI23268
aI23269
aI23270
aI23271
asg4
(lp451
I23256
asg6
(lp452
I3058
aI485
aI4
aI3252
aI7
aI19352
asg8
I2412
sa(dp453
g2
(lp454
I23296
aI23297
aI23298
aI23299
aI23300
aI23301
aI23302
aI23303
aI23304
aI23305
aI23306
aI23307
aI23308
aI23309
aI23310
aI23311
aI23312
aI23313
aI23314
asg4
(lp455
I23295
asg6
(lp456
I16460
aI216
aI8859
aI4731
aI336
asg8
I2415
sa(dp457
g2
(lp458
I23315
aI23316
aI23317
aI23318
aI23319
asg4
(lp459
I23320
asg6
(lp460
I18203
aI1568
aI13941
asg8
I2416
sa(dp461
g2
(lp462
I23324
aI23325
aI23326
aI23327
aI23328
aI23329
aI23330
aI23331
aI23332
aI23333
aI23334
aI23335
aI23336
aI23337
aI23338
aI23339
aI23341
aI23342
aI23343
aI23344
aI23345
aI23346
aI23347
aI23348
aI23349
aI23350
asg4
(lp463
I23340
asg6
(lp464
I5969
aI216
aI4621
aI871
aI5
aI261
asg8
I2418
sa(dp465
g2
(lp466
I23352
aI23353
aI23354
aI23355
aI23356
aI23357
aI23358
aI23359
aI23360
aI23361
aI23362
aI23363
aI23364
aI23365
asg4
(lp467
I23351
asg6
(lp468
I17376
aI174
aI238
aI629
aI540
aI2
aI5124
asg8
I2419
sa(dp469
g2
(lp470
I23366
aI23367
aI23368
aI23369
aI23371
aI23372
aI23373
aI23374
aI23375
asg4
(lp471
I23370
asg6
(lp472
I5
aI2640
aI723
aI56
aI3334
aI1144
aI51
aI974
aI51
aI72
aI126
aI7
aI365
aI801
aI27972
aI7324
aI31
asg8
I2420
sa(dp473
g2
(lp474
I23382
aI23383
aI23384
aI23385
aI23386
aI23388
aI23389
asg4
(lp475
I23387
asg6
(lp476
I17641
aI701
aI94
aI2468
aI32027
asg8
I2422
sa(dp477
g2
(lp478
I23390
aI23391
aI23393
aI23396
aI23397
aI23398
asg4
(lp479
I23392
aI23394
aI23395
asg6
(lp480
I5731
aI5732
aI216
aI2
aI32035
aI1412
asg8
I2423
sa(dp481
g2
(lp482
I23417
aI23418
asg4
(lp483
I23416
aI23419
asg6
(lp484
I1915
aI1001
aI51
aI10260
aI216
aI10309
aI219
asg8
I2425
sa(dp485
g2
(lp486
I23439
aI23440
aI23441
aI23442
aI23443
aI23444
aI23445
aI23446
aI23447
aI23448
aI23449
aI23450
aI23451
aI23452
aI23453
aI23454
aI23455
aI23456
aI23457
aI23458
aI23459
aI23460
aI23461
aI23462
aI23463
aI23464
asg4
(lp487
I23438
asg6
(lp488
I2370
aI2369
aI51
aI1916
aI216
aI12781
aI477
aI10
asg8
I2427
sa(dp489
g2
(lp490
I23483
aI23484
asg4
(lp491
I23482
asg6
(lp492
I1890
aI393
aI216
aI2155
aI1132
aI3182
aI20
aI3677
asg8
I2430
sa(dp493
g2
(lp494
sg4
(lp495
I23485
asg6
(lp496
I950
aI6754
aI56
aI2
aI9151
aI9152
aI51
aI628
aI950
aI5482
aI51
aI950
aI2218
aI51
aI72
aI9153
aI828
aI430
aI1752
aI4
aI9151
aI9152
aI7
aI4445
aI551
aI54
aI41
aI551
aI10
asg8
I2431
sa(dp497
g2
(lp498
I23514
aI23515
aI23517
aI23518
aI23519
aI23520
aI23521
aI23522
aI23523
aI23524
aI23525
aI23526
aI23527
aI23528
asg4
(lp499
I23516
asg6
(lp500
I828
aI430
aI2432
aI4
aI876
aI335
aI7383
aI2346
aI7384
aI51
aI31
aI114
aI7385
aI77
aI801
aI7386
aI7387
aI4299
aI51
aI1411
aI13
aI334
aI748
aI4
aI2
aI7388
aI2539
aI110
aI168
aI111
aI393
aI7
aI14936
aI2
aI415
aI4170
asg8
I2435
sa(dp501
g2
(lp502
I23530
aI23531
aI23532
aI23533
asg4
(lp503
I23529
asg6
(lp504
I105
aI57
aI113
aI41
aI254
aI174
aI451
aI77
aI408
aI51
aI77
aI114
aI623
aI211
aI56
aI2249
aI113
aI178
aI430
aI9265
aI77
aI430
aI190
aI18160
aI191
aI51
aI825
aI311
aI8669
aI36
aI5395
aI2249
aI6287
aI7
aI5
aI99
aI32123
asg8
I2436
sa(dp505
g2
(lp506
I23534
aI23536
asg4
(lp507
I23535
asg6
(lp508
I1010
aI13365
aI13366
aI7
aI5
aI32126
aI2536
aI31
aI36
asg8
I2437
sa(dp509
g2
(lp510
I23537
aI23539
aI23540
asg4
(lp511
I23538
asg6
(lp512
I1121
aI15975
aI721
aI216
aI293
aI1794
aI41
aI2
aI1033
aI9178
aI3004
aI2
aI2061
aI1052
aI127
aI2
aI278
aI51
aI721
aI216
aI293
aI1794
aI41
aI2
aI10344
aI51
aI77
aI721
aI216
aI293
aI642
aI41
aI2016
aI19637
aI216
aI17037
aI32130
asg8
I2438
sa(dp513
g2
(lp514
I23571
aI23572
aI23573
aI23575
aI23576
aI23577
aI23578
asg4
(lp515
I23574
asg6
(lp516
I41
aI2
aI2102
aI4
aI4288
aI216
aI10424
aI3167
aI1881
aI451
asg8
I2442
sa(dp517
g2
(lp518
I23585
aI23586
aI23587
aI23588
aI23589
aI23590
aI23591
aI23592
aI23593
aI23594
aI23595
aI23596
aI23597
aI23598
asg4
(lp519
I23584
asg6
(lp520
I103
aI4
aI3109
aI1403
aI51
aI1308
aI243
aI955
aI41
aI5070
aI1137
aI1086
aI766
aI748
aI1107
asg8
I2444
sa(dp521
g2
(lp522
I23638
aI23639
aI23640
aI23641
aI23642
aI23643
aI23644
aI23645
aI23646
aI23647
aI23648
aI23650
aI23651
aI23652
asg4
(lp523
I23649
asg6
(lp524
I17427
aI17428
aI243
aI3591
aI3592
aI3579
asg8
I2452
sa(dp525
g2
(lp526
I23654
aI23655
aI23656
aI23657
aI23658
aI23659
aI23660
aI23661
aI23662
aI23663
aI23664
aI23665
aI23666
aI23667
aI23668
aI23669
aI23670
aI23671
aI23672
asg4
(lp527
I23653
asg6
(lp528
I5
aI1708
aI3344
aI1314
aI10008
aI4026
aI393
aI7
aI348
aI2366
aI348
aI10
asg8
I2453
sa(dp529
g2
(lp530
I23679
aI23680
aI23681
aI23682
aI23683
aI23684
aI23685
aI23686
aI23687
aI23688
aI23689
aI23690
aI23691
aI23692
aI23693
aI23694
asg4
(lp531
I23678
asg6
(lp532
I4819
aI51
aI4820
aI51
aI4821
aI51
aI4822
aI51
aI4823
aI51
aI1296
aI4824
aI51
aI1296
aI1297
aI51
aI4825
aI4826
aI51
aI4827
aI51
aI77
aI2039
aI331
aI103
aI727
aI103
aI2
aI4828
aI4
aI4829
aI77
aI1411
aI436
aI1314
aI4625
aI7
aI5
aI7749
aI56
aI5
aI7831
asg8
I2455
sa(dp533
g2
(lp534
I23720
asg4
(lp535
I23719
asg6
(lp536
I19687
aI19688
aI19294
aI110
aI415
aI416
aI295
aI51
aI2991
aI111
aI7
aI5
aI1314
aI1300
aI2030
aI4588
aI335
aI14051
aI32227
aI1586
aI1310
aI293
aI56
aI1174
asg8
I2460
sa(dp537
g2
(lp538
I23731
aI23732
aI23733
aI23734
aI23735
aI23736
aI23737
aI23738
aI23739
aI23740
aI23741
aI23742
aI23743
aI23744
aI23745
aI23746
aI23747
aI23748
aI23749
aI23750
aI23751
asg4
(lp539
I23730
asg6
(lp540
I5
aI1314
aI9378
aI8235
aI51
aI1439
aI184
aI36
aI237
aI1107
aI13
aI2
aI17290
aI11555
aI3314
aI184
aI103
aI2
aI17291
aI51
aI77
aI1394
aI36
aI237
aI451
aI13
aI2
aI20249
aI20250
aI20251
aI457
aI2
aI10082
aI4
aI8518
asg8
I2463
sa(dp541
g2
(lp542
I23766
asg4
(lp543
I23767
asg6
(lp544
I17266
aI7
aI5
aI220
aI221
aI721
aI955
aI41
aI1137
aI36
aI19680
aI9955
aI1086
aI820
aI32268
asg8
I2465
sa(dp545
g2
(lp546
I23769
aI23770
aI23771
aI23772
aI23773
aI23774
aI23775
aI23776
aI23777
aI23778
aI23779
aI23780
aI23781
aI23782
aI23783
aI23784
asg4
(lp547
I23768
asg6
(lp548
I19564
aI19565
aI51
aI19505
aI11543
aI19566
aI51
aI9619
aI19567
aI51
aI77
aI19568
aI19569
aI308
aI2446
aI2023
asg8
I2466
sa(dp549
g2
(lp550
I23813
aI23815
aI23816
aI23817
aI23818
aI23819
aI23820
aI23821
aI23822
aI23823
asg4
(lp551
I23814
asg6
(lp552
I2966
aI1726
aI72
aI12503
aI485
aI4
aI781
aI7
aI15978
asg8
I2470
sa(dp553
g2
(lp554
I23824
aI23825
aI23826
aI23827
asg4
(lp555
I23828
asg6
(lp556
I18194
aI5252
aI110
aI415
aI416
aI2263
aI51
aI3910
aI111
aI7
aI5
aI1314
aI2472
aI51
aI1650
aI51
aI18195
aI51
aI1981
aI77
aI5953
aI18196
aI1439
aI184
aI103
aI5
aI3635
aI591
aI4
aI2
aI18197
aI827
aI14755
aI2133
aI1083
aI18198
aI18199
aI18200
aI110
aI18201
aI111
aI20
aI2434
aI56
aI417
aI70
aI2
aI229
aI1159
aI36
aI986
aI36
aI27
aI5855
asg8
I2471
sa(dp557
g2
(lp558
I23845
aI23846
aI23847
aI23848
aI23849
aI23850
aI23852
aI23853
aI23854
aI23855
asg4
(lp559
I23851
asg6
(lp560
I5311
aI7
aI5
aI9
aI4
aI406
aI41
aI154
aI281
aI4314
aI4069
aI243
aI5
aI586
aI2249
aI41
aI2
aI5399
aI30
aI1510
aI311
aI408
aI485
aI4
aI5770
aI216
aI32334
aI1412
aI41
asg8
I2474
sa(dp561
g2
(lp562
I23856
aI23858
aI23859
aI23860
asg4
(lp563
I23857
asg6
(lp564
I1131
aI4725
aI7
aI1171
aI41
aI2242
aI10
asg8
I2475
sa(dp565
g2
(lp566
I23861
aI23862
aI23864
aI23865
aI23866
aI23867
aI23868
aI23869
aI23870
aI23871
aI23872
aI23873
aI23874
asg4
(lp567
I23863
asg6
(lp568
I137
aI1001
aI51
aI2991
aI216
aI21666
aI1048
asg8
I2476
sa(dp569
g2
(lp570
I23877
aI23878
aI23879
asg4
(lp571
I23875
aI23876
asg6
(lp572
I4265
aI31
aI103
aI5
aI10792
aI56
aI2814
aI2526
aI51
aI102
aI103
aI10793
aI77
aI10794
aI51
aI154
aI7
aI808
aI13
aI5
aI1234
aI6897
aI3106
aI7
aI2
aI378
aI4365
aI36
aI2
aI3196
asg8
I2477
sa(dp573
g2
(lp574
I23900
aI23901
aI23902
aI23903
aI23904
aI23905
aI23906
aI23908
aI23909
asg4
(lp575
I23907
asg6
(lp576
I8930
aI216
aI26
aI16
aI32389
aI870
aI1154
aI270
asg8
I2480
sa(dp577
g2
(lp578
I23910
aI23912
aI23913
aI23914
aI23915
aI23916
aI23917
aI23918
asg4
(lp579
I23911
asg6
(lp580
I2
aI1827
aI573
aI4
aI5
aI1409
aI2005
aI2
aI477
aI4
aI5
aI3883
aI72
aI418
aI1335
aI203
aI7
aI2
aI32398
asg8
I2481
sa(dp581
g2
(lp582
I23950
aI23951
aI23952
aI23953
aI23954
aI23955
aI23956
aI23957
aI23958
aI23959
aI23960
aI23961
aI23962
aI23963
aI23964
aI23965
asg4
(lp583
I23949
asg6
(lp584
I5
aI21
aI10506
aI712
aI7
aI5
aI10892
aI41
aI19038
asg8
I2484
sa(dp585
g2
(lp586
I23967
aI23968
aI23969
asg4
(lp587
I23966
asg6
(lp588
I3069
aI3063
aI190
aI19045
aI19046
aI191
aI15971
aI7
aI5
aI9679
aI220
aI221
aI41
aI2
aI19047
aI1083
aI5352
aI77
aI2
aI8676
aI51
aI225
aI178
aI6455
aI19048
aI540
aI21937
aI10
asg8
I2485
sa(dp589
g2
(lp590
I23979
aI23981
aI23982
aI23983
aI23984
aI23985
aI23986
aI23987
aI23988
aI23989
aI23990
aI23991
aI23992
aI23993
aI23994
aI23995
asg4
(lp591
I23980
asg6
(lp592
I2899
aI7467
aI8872
aI110
aI12881
aI111
aI7
aI5
aI2551
aI1611
aI2889
aI10
asg8
I2487
sa(dp593
g2
(lp594
I24015
aI24016
aI24017
asg4
(lp595
I24018
asg6
(lp596
I19690
aI19691
aI7
aI5
aI19692
aI7976
aI51
aI7228
aI41
aI19421
aI51
aI5893
aI19422
aI18872
aI51
aI77
aI19423
aI51
aI647
aI41
aI5893
aI7310
aI1889
aI2
aI1979
aI7720
aI282
asg8
I2490
sa(dp597
g2
(lp598
I24020
aI24021
aI24022
aI24023
aI24024
aI24025
aI24026
aI24027
asg4
(lp599
I24019
asg6
(lp600
I17438
aI17439
aI540
aI32479
asg8
I2491
sa(dp601
g2
(lp602
sg4
(lp603
I24028
aI24029
asg6
(lp604
I18580
aI216
aI2
aI333
aI2144
aI305
aI2207
aI1174
aI68
asg8
I2492
sa(dp605
g2
(lp606
I24031
aI24032
aI24033
aI24034
aI24035
aI24036
aI24037
aI24038
aI24039
aI24040
aI24041
aI24042
aI24043
asg4
(lp607
I24030
asg6
(lp608
I17641
aI701
aI1086
aI2
aI1313
aI36
aI1432
aI1052
asg8
I2493
sa(dp609
g2
(lp610
I24121
aI24123
aI24124
aI24125
aI24126
aI24127
asg4
(lp611
I24122
asg6
(lp612
I8128
aI8129
aI7
aI3802
aI1995
asg8
I2500
sa(dp613
g2
(lp614
I24129
asg4
(lp615
I24128
asg6
(lp616
I2
aI31
aI4
aI2
aI7394
aI174
aI6719
aI51
aI9146
aI77
aI2687
aI36
aI63
aI1054
aI1121
aI4924
aI178
aI2
aI7976
aI7
aI5
aI32576
aI3680
asg8
I2501
sa(dp617
g2
(lp618
I24131
aI24132
asg4
(lp619
I24130
asg6
(lp620
I1935
aI216
aI32577
aI4984
aI32578
aI219
asg8
I2502
sa(dp621
g2
(lp622
I24216
aI24217
aI24218
aI24219
aI24220
aI24221
aI24222
aI24223
aI24224
aI24225
aI24226
aI24227
aI24228
aI24229
aI24230
aI24231
aI24232
aI24233
aI24234
aI24235
aI24236
aI24237
aI24238
asg4
(lp623
I24212
aI24213
aI24214
aI24215
asg6
(lp624
I992
aI184
aI103
aI1993
aI72
aI672
aI1993
aI51
aI7
aI4324
aI31
aI103
aI5
aI11575
aI72
aI5
aI11576
aI1878
aI540
aI4
aI2
aI343
aI261
asg8
I2513
sa(dp625
g2
(lp626
I24240
aI24241
aI24242
aI24243
aI24244
aI24245
aI24246
aI24247
aI24248
aI24249
aI24250
aI24251
aI24252
aI24253
asg4
(lp627
I24239
asg6
(lp628
I1950
aI538
aI51
aI52
aI105
aI183
aI1950
aI365
aI3612
aI160
aI2
aI1168
aI7
aI32664
aI9165
asg8
I2514
sa(dp629
g2
(lp630
I24271
aI24273
aI24274
aI24275
aI24276
aI24277
aI24278
aI24279
aI24280
aI24281
asg4
(lp631
I24272
asg6
(lp632
I5
aI4131
aI4132
aI3690
aI698
aI178
aI2
aI7699
aI629
aI7700
aI41
aI3956
aI261
aI1685
aI666
aI5352
aI3883
asg8
I2518
sa(dp633
g2
(lp634
I24303
aI24304
aI24305
aI24306
aI24307
aI24308
aI24309
asg4
(lp635
I24302
asg6
(lp636
I237
aI7
aI583
aI2685
aI908
aI103
aI2
aI17587
aI1719
aI51
aI187
aI365
aI634
aI908
aI237
aI103
aI2
aI820
aI1719
aI1086
aI2
aI1313
aI32689
asg8
I2521
sa(dp637
g2
(lp638
I24332
aI24333
aI24334
aI24336
aI24337
aI24338
aI24339
aI24340
aI24341
aI24342
aI24343
aI24344
aI24345
aI24346
aI24347
aI24348
aI24349
aI24350
aI24351
aI24352
aI24353
asg4
(lp639
I24335
asg6
(lp640
I2
aI4814
aI1052
aI41
aI1314
aI846
aI393
aI7
aI2
aI10453
aI858
asg8
I2523
sa(dp641
g2
(lp642
I24354
aI24356
aI24357
aI24358
aI24359
aI24360
aI24361
aI24362
aI24363
aI24364
aI24365
aI24366
aI24367
aI24368
asg4
(lp643
I24355
asg6
(lp644
I5
aI9750
aI9751
aI393
aI7
aI2
aI11432
aI3769
aI540
asg8
I2524
sa(dp645
g2
(lp646
I24369
aI24370
aI24371
aI24373
aI24374
asg4
(lp647
I24372
asg6
(lp648
I7798
aI6568
aI98
aI9112
aI72
aI508
aI3453
aI958
aI9113
aI9114
aI77
aI7801
aI72
aI9115
aI4554
aI51
aI49
aI419
aI98
aI6165
aI13
aI2
aI7298
aI6050
aI7
aI781
aI8071
asg8
I2525
sa(dp649
g2
(lp650
I24392
aI24393
aI24394
aI24395
aI24396
aI24397
aI24398
aI24399
aI24400
aI24401
aI24402
aI24403
aI24404
aI24405
aI24406
aI24407
aI24408
aI24409
aI24410
aI24411
aI24412
aI24413
aI24414
aI24415
aI24416
aI24417
aI24418
asg4
(lp651
I24391
asg6
(lp652
I5
aI1583
aI4
aI1189
aI5
aI7479
aI7480
aI3004
aI5
aI6651
aI178
aI499
aI5
aI1275
aI599
aI110
aI2
aI7481
aI111
aI56
aI567
aI667
aI51
aI5351
aI3442
aI56
aI2
aI6651
aI51
aI2381
aI56
aI2
aI7482
aI432
aI7
aI5
aI6813
asg8
I2529
sa(dp653
g2
(lp654
I24431
aI24433
aI24434
aI24435
aI24436
aI24437
aI24438
aI24439
aI24440
aI24441
aI24442
asg4
(lp655
I24432
asg6
(lp656
I6326
aI51
aI183
aI184
aI103
aI6327
aI5580
aI51
aI72
aI6328
aI5580
aI51
aI7
aI5
aI5048
aI432
aI4
aI5580
aI20
aI2
aI1933
aI4861
aI3354
aI7
aI32234
aI1385
aI269
asg8
I2532
sa(dp657
g2
(lp658
I24444
asg4
(lp659
I24443
asg6
(lp660
I18354
aI2
aI120
aI7
aI13093
asg8
I2533
sa(dp661
g2
(lp662
I24451
aI24452
aI24454
aI24455
aI24456
aI24457
aI24458
aI24459
aI24460
aI24461
aI24462
aI24463
aI24464
aI24465
aI24466
aI24467
aI24468
aI24469
aI24470
aI24471
aI24472
aI24473
aI24474
aI24475
aI24476
aI24477
aI24478
aI24479
asg4
(lp663
I24453
asg6
(lp664
I886
aI887
aI9939
aI1412
asg8
I2535
sa(dp665
g2
(lp666
I24496
aI24500
asg4
(lp667
I24495
aI24497
aI24498
aI24499
asg6
(lp668
I17284
aI17284
aI7
aI10567
aI20
aI5841
asg8
I2538
sa(dp669
g2
(lp670
I24502
aI24503
aI24504
aI24505
aI24506
aI24507
aI24508
aI24509
aI24510
asg4
(lp671
I24501
asg6
(lp672
I5
aI4967
aI4
aI258
aI7325
aI2526
aI77
aI2000
aI762
aI2662
aI1140
aI77
aI8658
aI7
aI32807
aI32808
asg8
I2539
sa(dp673
g2
(lp674
I24558
asg4
(lp675
I24557
asg6
(lp676
I18261
aI51
aI18262
aI7
aI28556
aI3847
asg8
I2544
sa(dp677
g2
(lp678
I24560
aI24561
aI24562
asg4
(lp679
I24559
asg6
(lp680
I14457
aI51
aI4562
aI77
aI1724
aI31
aI336
aI4803
aI3579
aI20
aI2
aI2320
aI4804
aI56
aI2
aI2320
aI3274
aI7
aI8050
aI8055
asg8
I2545
sa(dp681
g2
(lp682
I24581
aI24582
aI24583
aI24584
aI24585
aI24586
aI24587
aI24588
aI24589
aI24590
aI24591
asg4
(lp683
I24580
asg6
(lp684
I53
aI2223
aI4
aI1416
aI94
aI5
aI2190
aI10120
aI1200
aI51
aI508
aI56
aI5
aI2190
aI10121
aI51
aI154
aI808
aI2
aI1450
aI4
aI10122
aI51
aI49
aI398
aI56
aI103
aI5
aI10123
aI51
aI2604
aI51
aI72
aI10124
aI4
aI10122
aI7
aI100
aI41
aI19038
asg8
I2548
sa(dp685
g2
(lp686
I24592
aI24593
aI24595
aI24596
aI24597
asg4
(lp687
I24594
asg6
(lp688
I5241
aI7
aI2
aI133
aI41
aI6313
asg8
I2549
sa(dp689
g2
(lp690
I24598
aI24600
aI24601
aI24602
asg4
(lp691
I24599
asg6
(lp692
I17266
aI7
aI5
aI220
aI221
aI721
aI955
aI41
aI1137
aI36
aI19680
aI9955
aI7
aI2
aI591
aI4
aI2
aI32873
aI7550
aI1985
aI10
asg8
I2550
sa(dp693
g2
(lp694
I24605
asg4
(lp695
I24603
aI24604
asg6
(lp696
I1890
aI7
aI32878
aI4
aI1378
asg8
I2551
sa(dp697
g2
(lp698
I24628
aI24629
aI24630
aI24631
aI24632
aI24634
aI24635
aI24636
aI24637
aI24638
aI24639
asg4
(lp699
I24633
asg6
(lp700
I206
aI56
aI53
aI2229
aI51
aI737
aI18867
aI1128
aI4
aI281
aI18868
aI6036
aI41
aI8099
aI110
aI17616
aI470
aI111
aI51
aI77
aI18869
aI1128
aI41
aI2
aI1010
aI1011
aI110
aI4997
aI470
aI111
aI51
aI98
aI583
aI4
aI2
aI7275
aI2946
aI41
aI10111
aI110
aI4346
aI470
aI111
aI77
aI2771
aI110
aI8896
aI470
aI111
aI7
aI17139
aI1597
aI223
asg8
I2554
sa(dp701
g2
(lp702
I24658
aI24659
aI24660
aI24662
aI24663
aI24664
aI24665
aI24666
aI24667
aI24668
aI24669
aI24670
asg4
(lp703
I24661
asg6
(lp704
I19952
aI7
aI2
aI921
aI4
aI686
aI223
aI900
aI41
aI5
aI15968
aI366
aI1850
aI56
aI15969
aI1381
aI2697
aI500
aI6878
aI2
aI223
aI174
aI874
aI366
aI1850
aI7
aI2
aI47
aI4
aI1736
aI1737
asg8
I2556
sa(dp705
g2
(lp706
I24698
aI24699
aI24700
aI24701
aI24702
asg4
(lp707
I24697
asg6
(lp708
I8695
aI8696
aI41
aI2
aI8697
aI8698
aI7
aI2958
aI4
aI392
aI737
asg8
I2561
sa(dp709
g2
(lp710
I24706
aI24707
aI24708
aI24709
aI24710
asg4
(lp711
I24705
asg6
(lp712
I5420
aI5247
aI77
aI5421
aI5422
aI200
aI686
aI7
aI62
aI32933
aI4051
asg8
I2563
sa(dp713
g2
(lp714
I24720
aI24721
asg4
(lp715
I24719
asg6
(lp716
I2
aI536
aI7288
aI737
aI37
aI1568
aI118
aI7289
aI278
aI51
aI94
aI7290
aI5526
aI1611
aI51
aI72
aI254
aI7291
aI393
aI7
aI2
aI1921
aI4
aI32954
asg8
I2567
sa(dp717
g2
(lp718
I24813
asg4
(lp719
I24812
asg6
(lp720
I8155
aI19312
aI7
aI4588
aI1432
aI16053
aI23847
asg8
I2575
sa(dp721
g2
(lp722
I24868
aI24869
aI24870
asg4
(lp723
I24867
asg6
(lp724
I5
aI9294
aI20182
aI20183
aI56
aI443
aI122
aI4
aI2
aI3645
aI7
aI5
aI1567
aI18870
aI3466
asg8
I2578
sa(dp725
g2
(lp726
I24887
aI24888
aI24889
aI24890
aI24891
aI24892
asg4
(lp727
I24893
asg6
(lp728
I572
aI4
aI2
aI9612
aI879
aI7
aI2
aI8186
aI712
aI4
aI1417
asg8
I2580
sa(dp729
g2
(lp730
I24895
aI24896
asg4
(lp731
I24894
asg6
(lp732
I5
aI337
aI41
aI154
aI335
aI4067
aI2
aI979
aI4
aI221
aI41
aI5
aI220
aI5153
aI7
aI2
aI2783
aI3375
aI830
asg8
I2581
sa(dp733
g2
(lp734
I24916
aI24917
aI24918
asg4
(lp735
I24915
asg6
(lp736
I15677
aI1528
aI51
aI10206
aI1528
aI51
aI77
aI15678
aI664
aI20
aI1046
aI1799
aI1310
aI77
aI2
aI15679
aI965
aI41
aI10111
aI51
aI41
aI360
aI56
aI2
aI270
aI4
aI2
aI6195
aI21373
aI41
aI2
aI6201
aI7
aI41
aI5
aI7798
aI9353
aI10
asg8
I2584
sa(dp737
g2
(lp738
I24926
aI24928
aI24930
aI24931
aI24932
aI24933
asg4
(lp739
I24927
aI24929
asg6
(lp740
I5
aI485
aI4
aI7559
aI1246
aI31
aI41
aI7007
aI103
aI5
aI3216
aI56
aI1616
aI30
aI2
aI1847
aI7
aI4140
aI178
aI5
aI1620
aI7398
aI7
aI2
aI1834
aI4
aI2
aI9290
asg8
I2586
sa(dp741
g2
(lp742
I24935
aI24936
aI24937
aI24938
asg4
(lp743
I24934
asg6
(lp744
I5
aI2016
aI3720
aI4509
aI178
aI208
aI56
aI419
aI2
aI2016
aI41
aI8192
aI2967
aI345
aI1109
aI98
aI3894
aI51
aI6212
aI51
aI8193
aI51
aI77
aI3130
aI77
aI410
aI3252
aI7
aI2
aI4479
aI36
aI11171
aI14208
asg8
I2587
sa(dp745
g2
(lp746
I24939
aI24941
aI24942
aI24943
aI24944
asg4
(lp747
I24940
asg6
(lp748
I2
aI5989
aI598
aI1921
aI41
aI2
aI1797
aI261
aI4
aI2041
aI51
aI77
aI7
aI2
aI2789
aI501
aI4
aI18281
aI4618
aI7
aI2
aI46
aI9787
aI281
aI1432
aI337
aI2211
asg8
I2588
sa(dp749
g2
(lp750
I24954
aI24955
aI24958
asg4
(lp751
I24953
aI24956
aI24957
asg6
(lp752
I5753
aI4043
aI72
aI5754
aI7
aI7359
aI127
aI33126
asg8
I2591
sa(dp753
g2
(lp754
I24960
aI24961
asg4
(lp755
I24959
asg6
(lp756
I1797
aI4646
aI4459
aI5170
aI3816
aI20
aI554
aI5171
aI41
aI1403
aI56
aI554
aI5172
aI41
aI46
aI7
aI41
aI5
aI2441
aI8135
asg8
I2592
sa(dp757
g2
(lp758
I24963
aI24964
aI24965
aI24966
aI24967
aI24968
asg4
(lp759
I24962
asg6
(lp760
I5
aI2701
aI36
aI1381
aI14236
aI51
aI77
aI7
aI1881
aI254
aI4
aI2
aI583
aI992
aI31
aI2697
aI36
aI2
aI1315
aI51
aI14236
aI51
aI77
aI5086
aI4
aI27
aI906
aI1381
aI7
aI262
aI4
aI1929
aI14659
aI1313
aI4
aI8570
asg8
I2593
sa(dp761
g2
(lp762
I24998
aI24999
aI25000
aI25001
aI25002
aI25004
aI25005
asg4
(lp763
I25003
asg6
(lp764
I1961
aI2216
aI36
aI1695
aI51
aI1088
aI51
aI223
aI3535
aI51
aI1980
aI51
aI447
aI51
aI2127
aI51
aI2030
aI4640
aI51
aI7984
aI77
aI418
aI471
aI41
aI1786
aI3752
aI3252
aI7
aI2
aI308
aI393
aI4
aI10778
aI15531
asg8
I2595
sa(dp765
g2
(lp766
I25021
aI25022
aI25023
aI25024
asg4
(lp767
I25020
asg6
(lp768
I2
aI852
aI5039
aI110
aI2462
aI111
aI7
aI2
aI328
aI33146
asg8
I2598
sa(dp769
g2
(lp770
I25030
aI25031
aI25032
asg4
(lp771
I25029
asg6
(lp772
I2
aI308
aI12994
aI77
aI17496
aI1475
aI4
aI1192
aI1200
aI7
aI954
aI178
aI17497
aI17498
aI17499
aI77
aI57
aI41
aI6471
aI1219
aI41
aI7072
aI77
aI1525
aI7
aI7610
aI33152
aI33153
asg8
I2600
sa(dp773
g2
(lp774
I25034
aI25035
aI25036
aI25037
aI25038
aI25039
asg4
(lp775
I25033
asg6
(lp776
I22448
aI17444
aI7
aI689
aI33160
aI20
asg8
I2601
sa(dp777
g2
(lp778
I25065
aI25066
aI25067
aI25069
aI25070
asg4
(lp779
I25068
asg6
(lp780
I1339
aI7
aI2
aI33185
asg8
I2605
sa(dp781
g2
(lp782
I25071
aI25073
aI25074
aI25075
aI25076
aI25077
aI25078
aI25079
aI25080
asg4
(lp783
I25072
asg6
(lp784
I461
aI3491
aI858
aI7
aI13952
aI308
aI1048
asg8
I2606
sa(dp785
g2
(lp786
I25100
aI25101
aI25102
aI25103
aI25104
aI25105
asg4
(lp787
I25098
aI25099
asg6
(lp788
I10789
aI7
aI2
aI4531
aI4999
aI4
aI8076
aI31
aI36
asg8
I2608
sa(dp789
g2
(lp790
I25107
aI25108
aI25109
aI25110
aI25111
aI25112
aI25113
aI25114
aI25115
aI25116
aI25117
aI25118
aI25119
aI25120
aI25121
aI25122
aI25123
aI25124
aI25125
asg4
(lp791
I25106
asg6
(lp792
I2394
aI13
aI4776
aI2149
aI72
aI538
aI7
aI21678
aI21679
aI4246
aI262
asg8
I2609
sa(dp793
g2
(lp794
I25132
aI25133
aI25134
aI25135
aI25136
asg4
(lp795
I25131
asg6
(lp796
I2373
aI5536
aI15975
aI7
aI1876
aI30098
asg8
I2611
sa(dp797
g2
(lp798
I25137
aI25139
aI25140
aI25141
aI25142
aI25143
aI25144
asg4
(lp799
I25138
asg6
(lp800
I14188
aI19365
aI7
aI6899
aI17057
aI10
asg8
I2612
sa(dp801
g2
(lp802
I25193
asg4
(lp803
I25192
asg6
(lp804
I3041
aI7
aI7748
aI12492
aI415
asg8
I2618
sa(dp805
g2
(lp806
I25202
asg4
(lp807
I25201
asg6
(lp808
I1640
aI269
aI7
aI20631
aI11051
asg8
I2620
sa(dp809
g2
(lp810
I25211
aI25212
aI25213
aI25214
asg4
(lp811
I25210
asg6
(lp812
I640
aI7
aI2
aI21951
aI2211
asg8
I2622
sa(dp813
g2
(lp814
I25242
aI25243
asg4
(lp815
I25241
asg6
(lp816
I5841
aI2625
aI4
aI2
aI2378
aI697
aI1685
aI6184
aI6185
aI1467
aI77
aI3097
aI56
aI2285
aI7
aI2
aI26193
aI36
aI10
asg8
I2625
sa(dp817
g2
(lp818
I25259
aI25261
aI25262
aI25263
aI25264
aI25265
asg4
(lp819
I25260
asg6
(lp820
I95
aI4
aI2
aI756
aI261
aI20
aI2
aI20236
aI7
aI2
aI20822
aI13
aI2
aI3399
aI41
aI2
aI3196
asg8
I2627
sa(dp821
g2
(lp822
I25299
aI25300
aI25301
aI25302
asg4
(lp823
I25298
asg6
(lp824
I5
aI13059
aI5039
aI30
aI7
aI31
aI51
aI1777
aI418
aI1605
aI51
aI56
aI3920
aI852
aI4
aI1108
aI110
aI4493
aI41
aI5558
aI3811
aI697
aI111
aI51
aI2343
aI110
aI41
aI2
aI794
aI168
aI111
aI51
aI72
aI852
aI4
aI1418
aI7
aI33315
aI33316
asg8
I2631
sa(dp825
g2
(lp826
I25356
aI25357
aI25358
aI25359
aI25360
aI25361
aI25362
aI25363
aI25364
aI25365
aI25366
aI25367
aI25368
aI25369
aI25370
aI25371
aI25372
aI25373
aI25374
asg4
(lp827
I25355
asg6
(lp828
I7309
aI51
aI886
aI7310
aI7
aI2
aI6204
aI4
aI23107
aI4
aI2
aI343
aI261
asg8
I2635
sa(dp829
g2
(lp830
I25385
aI25386
aI25387
aI25388
aI25389
aI25390
aI25391
aI25392
aI25393
aI25394
aI25395
aI25396
aI25397
asg4
(lp831
I25384
asg6
(lp832
I1479
aI2
aI2126
aI405
aI4
aI2
aI341
aI406
aI77
aI7
aI2
aI4058
aI4
aI2
aI1010
aI1011
aI4503
aI4504
aI7
aI2
aI8874
aI1415
aI4403
aI7120
asg8
I2637
sa(dp833
g2
(lp834
I25399
aI25400
aI25401
asg4
(lp835
I25398
asg6
(lp836
I5
aI21
aI10506
aI712
aI7
aI2
aI2766
aI13136
aI5595
aI10
asg8
I2638
sa(dp837
g2
(lp838
I25471
aI25473
aI25474
aI25475
asg4
(lp839
I25472
asg6
(lp840
I773
aI6768
aI7
aI33444
aI33445
aI31
aI36
asg8
I2647
sa(dp841
g2
(lp842
sg4
(lp843
I25476
aI25477
asg6
(lp844
I4617
aI4618
aI7
aI11170
aI33461
aI1489
asg8
I2648
sa(dp845
g2
(lp846
I25624
aI25625
aI25626
aI25627
aI25628
aI25630
aI25631
aI25632
aI25633
aI25634
aI25635
aI25636
aI25637
asg4
(lp847
I25629
asg6
(lp848
I461
aI3491
aI858
aI7
aI2
aI7973
aI5030
aI3611
aI10
asg8
I2662
sa(dp849
g2
(lp850
I25638
aI25640
aI25641
aI25642
aI25643
aI25644
aI25645
aI25646
aI25647
asg4
(lp851
I25639
asg6
(lp852
I9134
aI4618
aI7
aI6316
aI20909
asg8
I2663
sa(dp853
g2
(lp854
I25669
aI25670
aI25671
aI25672
asg4
(lp855
I25668
asg6
(lp856
I2
aI18521
aI7
aI17037
aI689
aI13
aI5352
aI77
aI2
aI1921
asg8
I2667
sa(dp857
g2
(lp858
I25707
aI25708
aI25709
aI25710
aI25711
aI25713
asg4
(lp859
I25712
asg6
(lp860
I2227
aI825
aI4741
aI4742
aI103
aI122
aI4
aI2
aI4743
aI4744
aI13
aI2
aI4745
aI3968
aI4746
aI4747
aI51
aI77
aI92
aI8677
aI98
aI2
aI1408
aI7842
aI4
aI8678
aI7
aI2
aI1650
aI262
aI30
aI238
aI41
aI880
aI30
aI205
aI10
asg8
I2670
sa(dp861
g2
(lp862
I25723
aI25724
asg4
(lp863
I25722
asg6
(lp864
I2
aI8725
aI8726
aI8727
aI8728
aI36
aI8729
aI958
aI5893
aI440
aI7
aI2
aI906
aI4
aI5
aI5862
asg8
I2672
sa(dp865
g2
(lp866
I25726
aI25727
aI25728
aI25729
aI25730
aI25731
aI25732
aI25733
aI25734
aI25735
aI25736
aI25737
asg4
(lp867
I25725
asg6
(lp868
I828
aI17703
aI77
aI1800
aI7
aI1701
aI2
aI766
aI7
aI1889
aI223
aI10
asg8
I2673
sa(dp869
g2
(lp870
I25738
aI25739
aI25740
aI25741
aI25742
aI25743
aI25744
aI25745
aI25747
aI25748
aI25749
aI25750
aI25751
asg4
(lp871
I25746
asg6
(lp872
I17429
aI17430
aI7
aI13
aI33649
aI33650
aI1319
aI2536
asg8
I2674
sa(dp873
g2
(lp874
I25752
aI25754
aI25755
asg4
(lp875
I25753
asg6
(lp876
I122
aI4
aI2
aI977
aI8943
aI4
aI95
aI8944
aI307
aI311
aI1950
aI8945
aI20
aI2
aI8946
aI41
aI8947
aI4
aI8948
aI7
aI2
aI1650
aI721
aI238
aI2
aI995
aI242
aI9406
asg8
I2675
sa(dp877
g2
(lp878
I25809
aI25810
aI25811
aI25812
aI25813
aI25814
aI25815
aI25816
aI25817
asg4
(lp879
I25808
asg6
(lp880
I17072
aI17073
aI17074
aI7
aI8244
aI33697
aI2394
asg8
I2683
sa(dp881
g2
(lp882
I25821
aI25822
aI25823
aI25824
aI25825
aI25826
aI25827
aI25828
aI25829
aI25830
aI25831
aI25832
aI25833
asg4
(lp883
I25820
asg6
(lp884
I5
aI3735
aI4
aI2687
aI30
aI2689
aI77
aI9824
aI9825
aI101
aI7
aI2
aI63
aI4
aI1409
aI620
aI10
asg8
I2685
sa(dp885
g2
(lp886
I25844
aI25845
aI25846
aI25847
aI25848
aI25849
aI25850
aI25851
aI25852
aI25853
aI25854
aI25855
aI25856
aI25857
aI25859
aI25860
aI25861
aI25862
aI25863
aI25864
asg4
(lp887
I25858
asg6
(lp888
I1775
aI18300
aI440
aI51
aI77
aI5893
aI77
aI9995
aI445
aI7
aI1322
aI16904
aI248
aI900
aI10
asg8
I2687
sa(dp889
g2
(lp890
I25928
aI25929
aI25930
aI25931
aI25932
aI25933
asg4
(lp891
I25927
asg6
(lp892
I902
aI41
aI5731
aI5732
aI7
aI8874
aI16890
aI2242
asg8
I2693
sa(dp893
g2
(lp894
I25952
aI25953
aI25954
aI25955
aI25957
aI25958
aI25959
aI25960
aI25961
aI25962
aI25963
aI25964
aI25965
aI25966
aI25967
aI25968
aI25969
aI25970
aI25971
aI25972
aI25973
aI25974
aI25975
aI25976
aI25977
asg4
(lp895
I25956
asg6
(lp896
I4356
aI4
aI328
aI4438
aI7
aI18584
aI2303
aI415
asg8
I2696
sa(dp897
g2
(lp898
I26016
aI26017
aI26018
aI26019
aI26020
aI26021
asg4
(lp899
I26015
asg6
(lp900
I18194
aI5252
aI110
aI415
aI416
aI2263
aI51
aI3910
aI111
aI7
aI5
aI1314
aI2472
aI51
aI1650
aI51
aI18195
aI51
aI1981
aI77
aI5953
aI18196
aI1439
aI184
aI103
aI5
aI3635
aI591
aI4
aI2
aI18197
aI827
aI14755
aI2133
aI1083
aI18198
aI18199
aI18200
aI110
aI18201
aI111
aI20
aI2434
aI56
aI417
aI7
aI3826
aI20854
aI25572
aI10
asg8
I2700
sa(dp901
g2
(lp902
I26055
aI26057
aI26058
aI26059
aI26060
aI26061
aI26062
aI26063
aI26064
aI26065
aI26066
aI26067
aI26068
aI26069
aI26070
asg4
(lp903
I26056
asg6
(lp904
I9239
aI8676
aI7
aI2
aI485
aI4
aI5311
aI41
aI154
aI281
aI4069
aI243
aI2
aI950
aI56
aI540
aI406
aI5399
asg8
I2705
sa(dp905
g2
(lp906
I26101
aI26102
aI26103
aI26104
aI26105
aI26106
aI26107
aI26108
asg4
(lp907
I26100
asg6
(lp908
I8099
aI7
aI2
aI308
aI4246
aI19302
aI23559
asg8
I2708
sa(dp909
g2
(lp910
I26147
aI26148
aI26149
aI26150
aI26151
aI26152
aI26153
aI26154
aI26155
aI26156
aI26157
aI26158
asg4
(lp911
I26146
asg6
(lp912
I2
aI2797
aI5793
aI4
aI17189
aI6151
aI51
aI41
aI2
aI17190
aI261
aI4
aI17191
aI77
aI17192
aI7
aI1322
aI16904
aI415
asg8
I2712
sa(dp913
g2
(lp914
I26160
aI26161
aI26162
aI26163
aI26164
aI26165
aI26166
aI26167
aI26168
aI26169
aI26170
aI26171
aI26172
aI26173
aI26174
aI26175
aI26176
aI26177
aI26178
asg4
(lp915
I26159
asg6
(lp916
I4829
aI4618
aI7
aI2
aI4490
aI4
aI190
aI12367
aI191
aI10
asg8
I2713
sa(dp917
g2
(lp918
I26211
aI26213
aI26214
aI26215
aI26216
aI26217
aI26218
aI26219
aI26220
aI26221
aI26222
aI26223
aI26224
aI26225
aI26226
aI26227
asg4
(lp919
I26212
asg6
(lp920
I5236
aI7
aI2
aI1073
aI4
aI10860
aI174
aI881
asg8
I2718
sa(dp921
g2
(lp922
I26245
aI26247
aI26248
aI26249
aI26250
asg4
(lp923
I26246
asg6
(lp924
I14188
aI19365
aI7
aI2
aI1716
aI4
aI11985
asg8
I2720
sa(dp925
g2
(lp926
I26251
aI26253
aI26254
aI26255
aI26256
aI26257
aI26258
aI26259
aI26260
asg4
(lp927
I26252
asg6
(lp928
I2
aI5241
aI22961
aI7
aI5
aI1179
aI77
aI2013
aI84
aI41
aI3539
aI3579
aI20
aI2
aI461
aI4298
aI77
aI2320
aI3062
aI858
aI56
aI2
aI2320
aI11774
aI858
aI7
aI10892
aI33981
asg8
I2721
sa(dp929
g2
(lp930
I26265
aI26266
aI26267
aI26268
aI26269
aI26270
aI26271
aI26272
aI26273
aI26274
aI26275
aI26276
aI26277
aI26278
aI26279
aI26280
aI26281
aI26282
aI26283
aI26284
aI26285
aI26286
asg4
(lp931
I26261
aI26262
aI26263
aI26264
asg6
(lp932
I4756
aI77
aI3198
aI4
aI2
aI114
aI3013
aI7
aI33990
aI1874
aI1508
asg8
I2722
sa(dp933
g2
(lp934
I26297
aI26298
aI26299
aI26300
aI26301
aI26302
asg4
(lp935
I26296
asg6
(lp936
I2
aI5052
aI5053
aI5054
aI7
aI2
aI262
aI4
aI2
aI15674
aI783
aI2366
aI1377
asg8
I2724
sa(dp937
g2
(lp938
I26303
aI26304
aI26305
aI26306
aI26307
aI26308
aI26309
aI26310
aI26311
aI26312
aI26313
aI26314
aI26315
aI26316
aI26317
aI26318
aI26319
aI26320
aI26321
aI26322
aI26323
aI26324
aI26325
aI26326
aI26328
aI26329
aI26330
asg4
(lp939
I26327
asg6
(lp940
I2191
aI2
aI4611
aI72
aI4612
aI4
aI626
aI1738
aI791
aI72
aI311
aI4613
aI7
aI1511
aI1855
aI1605
aI30
aI2910
aI34035
aI216
aI10
asg8
I2725
sa(dp941
g2
(lp942
I26332
aI26334
aI26335
asg4
(lp943
I26331
aI26333
asg6
(lp944
I10789
aI7
aI7395
aI36
aI13683
asg8
I2726
sa(dp945
g2
(lp946
I26353
aI26354
asg4
(lp947
I26352
asg6
(lp948
I1379
aI395
aI6427
aI7
aI4568
aI1144
aI110
aI4569
aI77
aI4570
aI111
aI51
aI1786
aI4571
aI51
aI77
aI436
aI4556
aI51
aI103
aI727
aI103
aI2208
aI77
aI673
aI1238
aI307
aI4572
aI7
aI727
aI184
aI36
aI37
aI4573
aI7
aI4754
aI667
aI50
asg8
I2730
sa(dp949
g2
(lp950
I26403
aI26405
aI26406
aI26407
aI26408
asg4
(lp951
I26404
asg6
(lp952
I2
aI3486
aI4
aI2
aI1734
aI229
aI697
aI127
aI9891
aI7
aI9892
aI51
aI77
aI30
aI2
aI7896
aI4
aI9852
aI174
aI1208
aI13
aI151
aI7
aI2
aI32
aI1489
aI36
aI281
aI2666
aI625
aI178
aI9893
aI7
aI41
aI34094
asg8
I2737
sa(dp953
g2
(lp954
I26434
aI26435
aI26436
aI26437
aI26438
aI26439
aI26440
aI26441
aI26442
aI26443
asg4
(lp955
I26444
asg6
(lp956
I2
aI12799
aI2102
aI110
aI183
aI184
aI103
aI12800
aI111
aI4
aI2
aI10566
aI51
aI77
aI41
aI95
aI418
aI580
aI41
aI2
aI12801
aI120
aI7
aI2
aI332
aI2142
aI4
aI34106
asg8
I2740
sa(dp957
g2
(lp958
I26445
aI26446
aI26447
aI26449
aI26450
aI26451
asg4
(lp959
I26448
asg6
(lp960
I1087
aI77
aI418
aI7005
aI7
aI2
aI1106
aI528
aI4
aI16775
asg8
I2741
sa(dp961
g2
(lp962
sg4
(lp963
I26452
asg6
(lp964
I41
aI736
aI51
aI6157
aI174
aI16189
aI15970
aI2039
aI110
aI15971
aI9228
aI111
aI15972
aI237
aI98
aI5
aI15973
aI15974
aI51
aI154
aI664
aI41
aI2
aI16190
aI4
aI2039
aI174
aI16191
aI174
aI16192
aI515
aI7
aI34126
aI5480
aI10
asg8
I2742
sa(dp965
g2
(lp966
I26453
aI26455
aI26456
aI26457
aI26458
aI26459
asg4
(lp967
I26454
asg6
(lp968
I15975
aI721
aI216
aI293
aI1794
aI41
aI2
aI1033
aI9178
aI3004
aI2
aI2061
aI1052
aI127
aI2
aI278
aI51
aI721
aI216
aI293
aI1794
aI41
aI2
aI10344
aI51
aI77
aI721
aI216
aI293
aI642
aI41
aI2016
aI19637
aI7
aI281
aI4
aI2
aI34119
aI1768
asg8
I2743
sa(dp969
g2
(lp970
I26464
aI26465
aI26466
aI26467
aI26468
aI26470
asg4
(lp971
I26469
asg6
(lp972
I17404
aI17871
aI17407
aI7
aI7748
aI34137
aI1673
aI56
asg8
I2745
sa(dp973
g2
(lp974
I26471
aI26473
aI26474
aI26475
aI26476
aI26477
aI26478
asg4
(lp975
I26472
asg6
(lp976
I2
aI5809
aI4
aI2
aI18321
aI18155
aI13
aI18322
aI4768
aI7
aI2
aI34146
aI20
asg8
I2746
sa(dp977
g2
(lp978
I26516
aI26517
aI26518
aI26519
aI26520
aI26521
aI26522
aI26523
aI26524
asg4
(lp979
sg6
(lp980
I2
aI1263
aI4
aI5
aI1409
aI825
aI2
aI1611
aI178
aI5
aI879
aI418
aI658
aI2
aI1409
aI174
aI3892
aI11379
aI51
aI558
aI954
aI178
aI4065
aI1054
aI2
aI1409
aI174
aI6410
aI1502
aI7
aI5
aI136
aI14143
aI10
asg8
I2750
sa.