(lp0
(dp1
S'bad'
p2
(lp3
I18822
aI18823
aI18824
aI18825
aI18826
asS'good'
p4
(lp5
I18827
asS'question'
p6
(lp7
I233
aI659
aI374
aI3424
aI342
aI11
aI30032
aI76
aI1
aI1019
asS'question_id'
p8
I20011
sa(dp9
g2
(lp10
I18839
aI18840
aI18841
aI18842
aI18844
asg4
(lp11
I18843
asg6
(lp12
I2660
aI2661
aI16
aI186
aI576
aI422
asg8
I20027
sa(dp13
g2
(lp14
I18845
aI18846
aI18847
aI18849
asg4
(lp15
I18848
asg6
(lp16
I1
aI3030
aI100
aI11
aI3031
aI38
aI3032
aI93
aI166
aI16
aI3033
aI3034
aI3
aI71
aI16
aI2207
aI9
aI64
aI2167
aI1
aI3035
aI76
aI766
aI41
aI38
aI3036
aI16
aI1935
aI6
aI1250
aI156
aI16
aI112
aI1
aI2121
aI449
aI50
aI1
aI3034
aI1266
aI11
aI13265
aI30043
aI764
aI520
aI526
aI30044
asg8
I20032
sa(dp17
g2
(lp18
I3237
aI3242
aI3243
aI3244
aI3245
aI3246
aI3247
aI3248
aI3249
aI3250
aI3251
aI3252
aI3253
aI3254
aI3255
aI3256
aI3257
aI3258
asg4
(lp19
I3238
aI3239
aI3240
aI3241
asg6
(lp20
I1089
aI1090
aI250
aI1091
aI1092
aI948
aI1093
aI1094
aI38
aI1095
aI1096
aI3
aI38
aI114
aI117
aI19
aI59
aI1097
aI9
aI11
aI547
aI75
aI41
asg8
I20037
sa(dp21
g2
(lp22
I18900
aI18901
aI18902
aI18903
aI18905
aI18906
aI18907
asg4
(lp23
I18904
asg6
(lp24
I1410
aI998
aI11
aI2248
aI41
aI2093
asg8
I20107
sa(dp25
g2
(lp26
I18908
aI18909
aI18910
aI18911
aI18912
aI18914
aI18915
aI18916
aI18917
asg4
(lp27
I18913
asg6
(lp28
I16
aI4190
aI3
aI385
aI71
aI16
aI2575
aI38
aI115
aI41
aI132
aI50
aI1
aI2548
aI62
aI63
aI43
aI16
aI4191
aI9
aI11
aI16
aI464
aI50
aI4192
aI41
aI1
aI1229
aI50
aI16
aI4193
aI1032
aI16
aI809
aI50
aI1
aI3615
aI183
aI217
aI1300
aI2865
aI64
aI1418
aI16
aI2362
aI327
aI11
aI30096
aI2266
aI102
aI12833
aI15
asg8
I20115
sa(dp29
g2
(lp30
I19000
aI19001
aI19002
aI19003
aI19004
aI19005
asg4
(lp31
I18998
aI18999
asg6
(lp32
I16
aI805
aI50
aI116
aI806
aI807
aI43
aI425
aI808
aI6
aI434
aI809
aI50
aI806
aI810
aI124
aI41
aI425
aI811
aI812
aI6
aI19
aI425
aI813
aI195
aI30160
aI555
aI422
asg8
I20218
sa(dp33
g2
(lp34
I19006
aI19007
asg4
(lp35
I19008
asg6
(lp36
I5147
aI64
aI4338
aI4347
aI64
aI38
aI250
aI50
aI7363
aI2201
aI59
aI5785
aI1415
aI2227
aI19
aI30165
aI21948
asg8
I20226
sa(dp37
g2
(lp38
I19009
aI19010
aI19011
aI19012
aI19013
aI19014
aI19015
aI19016
aI19017
aI19019
aI19020
aI19021
aI19022
aI19023
aI19024
asg4
(lp39
I19018
asg6
(lp40
I380
aI217
aI461
aI2059
aI2060
aI195
aI30167
aI30168
aI875
aI1594
asg8
I20229
sa(dp41
g2
(lp42
I19028
aI19029
aI19030
aI19031
aI19033
aI19034
aI19035
aI19036
aI19037
asg4
(lp43
I19032
asg6
(lp44
I3010
aI998
aI195
aI30180
aI3936
asg8
I20248
sa(dp45
g2
(lp46
I19057
aI19058
aI19061
aI19062
aI19063
aI19064
asg4
(lp47
I19059
aI19060
asg6
(lp48
I730
aI1156
aI11
aI30210
aI1401
aI3385
aI184
aI480
aI1466
asg8
I20276
sa(dp49
g2
(lp50
I19065
aI19066
aI19068
aI19069
aI19070
asg4
(lp51
I19067
asg6
(lp52
I1585
aI150
aI100
aI142
aI2118
aI2119
aI1039
aI64
aI2120
aI38
aI2121
aI2122
aI2123
aI64
aI2124
aI64
aI16
aI2118
aI2125
aI50
aI584
aI38
aI2126
aI403
aI195
aI2133
aI211
aI21251
asg8
I20284
sa(dp53
g2
(lp54
I19071
aI19072
aI19074
aI19075
aI19076
aI19077
aI19078
asg4
(lp55
I19073
asg6
(lp56
I16
aI2676
aI5319
aI9524
aI50
aI1
aI2642
aI4917
aI64
aI150
aI11
aI918
aI76
aI1
aI742
aI2594
aI50
aI1
aI32
aI680
aI2088
aI1466
asg8
I20290
sa(dp57
g2
(lp58
I4814
aI19080
aI19082
aI19083
aI19084
aI19085
aI19086
asg4
(lp59
I19079
aI19081
asg6
(lp60
I210
aI2968
aI1862
aI1364
aI210
aI2359
aI43
aI16
aI1085
aI64
aI1130
aI64
aI5939
aI38
aI5940
aI64
aI4356
aI16
aI6758
aI6759
aI19
aI1
aI6760
aI59
aI210
aI786
aI6761
aI1670
aI8819
aI64
aI8300
aI364
aI2637
aI16
aI1756
aI1399
aI41
aI1
aI3101
aI791
aI43
aI16
aI6763
aI64
aI6764
aI38
aI6765
aI1030
aI195
aI6174
aI1158
aI184
aI1364
aI1
aI7457
asg8
I20298
sa(dp61
g2
(lp62
I19110
aI19112
aI19113
asg4
(lp63
I19111
asg6
(lp64
I3306
aI156
aI16
aI7263
aI1013
aI415
aI59
aI4715
aI2148
aI1315
aI291
aI11
aI75
aI41
aI1
aI7264
aI59
aI925
aI100
aI5614
aI1638
aI195
asg8
I20337
sa(dp65
g2
(lp66
I19161
aI19162
asg4
(lp67
I19159
aI19160
asg6
(lp68
I72
aI11
aI1
aI1039
aI34
aI150
aI16
aI7338
aI3729
aI6
aI4265
aI2888
aI6
aI856
aI7685
aI76
aI1
aI2807
aI50
aI131
aI1685
aI3729
aI6
aI4265
aI195
aI30309
aI332
asg8
I20397
sa(dp69
g2
(lp70
sg4
(lp71
I19225
aI19226
aI19227
asg6
(lp72
I367
aI1497
aI374
aI1501
aI793
aI43
aI50
aI1502
aI195
aI16
aI110
aI111
aI113
aI422
asg8
I20462
sa(dp73
g2
(lp74
I19250
aI19252
aI19253
asg4
(lp75
I19251
asg6
(lp76
I1
aI11159
aI334
aI50
aI1
aI62
aI63
aI3
aI7820
aI312
aI42
aI9
aI1840
aI11
aI1
aI1071
aI764
aI3089
aI3090
aI11
aI1382
asg8
I20487
sa(dp77
g2
(lp78
I19333
aI19335
aI19336
aI19337
aI19338
aI19340
aI19341
aI19342
aI19343
aI19344
aI19345
aI19346
aI19347
aI19348
aI19349
aI19350
aI19351
aI19352
aI19353
asg4
(lp79
I19334
aI19339
asg6
(lp80
I2953
aI11
aI2768
aI526
asg8
I20567
sa(dp81
g2
(lp82
I18175
aI18177
aI18179
aI18180
aI18181
aI18182
aI18183
aI18184
aI18185
aI18186
aI18187
aI18188
asg4
(lp83
I18176
aI18178
asg6
(lp84
I16
aI970
aI218
aI1533
aI5733
aI158
aI316
aI777
aI41
aI5734
aI195
aI29442
aI29443
aI195
asg8
I20586
sa(dp85
g2
(lp86
I19367
aI19368
aI19369
aI19370
aI19371
aI19372
aI19373
aI19374
aI19375
aI19376
aI19377
aI19378
aI19379
aI19380
aI19381
aI19382
asg4
(lp87
I19366
asg6
(lp88
I209
aI1017
aI334
aI217
aI11
aI1018
aI1266
aI3914
aI29647
aI38
aI22724
aI30489
asg8
I20612
sa(dp89
g2
(lp90
I19412
aI19413
aI19415
aI19416
asg4
(lp91
I19414
asg6
(lp92
I15237
aI5967
aI195
aI30530
aI1059
aI59
asg8
I20658
sa(dp93
g2
(lp94
I19428
aI19429
aI19430
aI19431
aI19432
aI19433
aI19434
asg4
(lp95
I19427
asg6
(lp96
I1
aI2202
aI14962
aI1571
aI11
aI5213
aI8354
aI1571
asg8
I20673
sa(dp97
g2
(lp98
I4289
aI4291
aI4292
aI4293
aI4294
aI4295
aI4296
asg4
(lp99
I4290
asg6
(lp100
I1564
aI943
aI50
aI1
aI1565
aI170
aI1229
aI3
aI1566
aI1567
aI1568
aI1569
aI9
aI433
aI82
aI11
aI142
aI41
aI1
aI612
aI2678
aI15
asg8
I20697
sa(dp101
g2
(lp102
I19441
asg4
(lp103
I19442
aI19443
asg6
(lp104
I16
aI2691
aI1154
aI33
aI34
aI1
aI1624
aI13650
aI13651
aI8653
aI3
aI13652
aI9
aI76
aI77
aI6664
aI59
aI801
aI1938
aI3
aI4944
aI9
aI2683
aI7361
aI3648
aI75
aI34
aI2108
aI4987
aI856
aI50
aI2750
aI19
aI2100
aI11
aI950
asg8
I20706
sa(dp105
g2
(lp106
I19451
aI19452
aI19453
asg4
(lp107
I19454
asg6
(lp108
I1089
aI1090
aI250
aI1091
aI1092
aI948
aI1093
aI1094
aI38
aI1095
aI1096
aI3
aI38
aI114
aI117
aI19
aI59
aI1097
aI9
aI195
aI511
aI170
aI977
aI108
aI1364
aI1
aI1866
asg8
I20716
sa(dp109
g2
(lp110
I19455
aI19456
aI19458
aI19459
aI19460
aI19461
aI19462
aI19463
aI19464
aI19465
asg4
(lp111
I19457
asg6
(lp112
I9247
aI11
aI8510
aI4025
aI51
aI217
aI11
aI1822
aI50
aI1823
aI64
aI1824
aI1148
aI1825
aI64
aI38
aI713
aI1826
aI76
aI1412
aI9248
aI433
aI48
aI11
aI585
aI50
aI1
aI9128
asg8
I20720
sa(dp113
g2
(lp114
I19467
aI19469
asg4
(lp115
I19468
asg6
(lp116
I380
aI217
aI461
aI2059
aI2060
aI433
aI30600
aI19
aI16
aI5990
asg8
I20749
sa(dp117
g2
(lp118
I19470
aI19471
aI19473
aI19474
aI19475
aI19476
aI19477
aI19478
aI19479
aI19480
aI19481
aI19482
aI19483
aI19484
aI19485
asg4
(lp119
I19472
asg6
(lp120
I1
aI5422
aI5423
aI76
aI559
aI16
aI5424
aI664
aI16
aI111
aI50
aI666
aI3
aI1
aI52
aI580
aI69
aI9
aI1586
aI1
aI579
aI50
aI1
aI5425
aI864
aI100
aI11
aI357
aI34
aI2815
asg8
I20752
sa(dp121
g2
(lp122
I19486
aI19487
aI19489
aI19490
aI19491
aI19492
aI19493
aI19494
aI19495
aI19496
aI19497
aI19498
aI19499
aI19500
aI19501
asg4
(lp123
I19488
asg6
(lp124
I5940
aI38
aI5939
aI2784
aI11
aI20066
aI2040
aI41
asg8
I20776
sa(dp125
g2
(lp126
I19503
asg4
(lp127
I19502
asg6
(lp128
I1
aI4994
aI2394
aI50
aI16
aI425
aI705
aI95
aI64
aI4158
aI16
aI4949
aI7528
aI195
aI16
aI1935
aI1226
aI2221
aI1631
aI963
asg8
I20792
sa(dp129
g2
(lp130
I19553
aI19554
aI19555
aI19557
aI19558
asg4
(lp131
I19556
asg6
(lp132
I1
aI7967
aI50
aI7968
aI66
aI41
aI16
aI7337
aI948
aI434
aI49
aI16
aI804
aI51
aI11
aI1207
aI76
aI7969
aI66
aI195
aI1058
aI8104
aI2394
aI50
aI15
asg8
I20851
sa(dp133
g2
(lp134
I19594
aI19596
aI19597
aI19598
asg4
(lp135
I19595
asg6
(lp136
I291
aI1537
aI51
aI1
aI3457
aI50
aI1
aI918
aI208
aI32
aI112
aI10505
aI11
aI10506
aI64
aI38
aI51
aI1
aI7877
aI50
aI10507
aI170
aI1174
aI19
aI147
aI11
aI1
aI229
aI1450
aI59
aI254
aI2636
aI621
aI34
aI10508
aI195
aI28996
aI195
aI76
aI1935
aI15
asg8
I20891
sa(dp137
g2
(lp138
I19599
aI19601
aI19602
aI19603
aI19604
aI19605
asg4
(lp139
I19600
asg6
(lp140
I1
aI547
aI2653
aI16
aI3291
aI132
aI50
aI1
aI2096
aI3292
aI64
aI71
aI16
aI3219
aI30702
aI10878
aI3469
aI11
aI526
asg8
I20912
sa(dp141
g2
(lp142
I9510
aI19637
aI19638
aI19639
asg4
(lp143
I19636
asg6
(lp144
I16
aI342
aI2760
aI91
aI51
aI5546
aI3840
aI3467
aI76
aI1
aI62
aI63
aI136
aI64
aI4117
aI1436
aI392
aI6821
aI38
aI4542
aI64
aI38
aI4430
aI50
aI1
aI1436
aI1856
aI7196
aI38
aI328
aI3991
aI8405
aI195
aI23329
aI41
aI30739
aI30740
aI332
asg8
I20949
sa(dp145
g2
(lp146
I19640
aI19641
aI19644
aI19645
asg4
(lp147
I19642
aI19643
asg6
(lp148
I1089
aI1090
aI250
aI1091
aI1092
aI948
aI1093
aI1094
aI38
aI1095
aI1096
aI3
aI38
aI114
aI117
aI19
aI59
aI1097
aI9
aI433
aI826
aI41
aI16
aI9999
aI8
aI50
aI311
asg8
I20954
sa(dp149
g2
(lp150
I19739
aI19740
aI19741
aI19742
aI19743
aI19744
aI19745
aI19747
asg4
(lp151
I19746
asg6
(lp152
I2022
aI998
aI50
aI1019
aI2349
aI195
aI2350
aI526
aI486
asg8
I21051
sa(dp153
g2
(lp154
I19749
aI19750
aI19751
aI19752
asg4
(lp155
I19748
asg6
(lp156
I6806
aI11130
aI11131
aI365
aI349
aI11
aI446
asg8
I21060
sa(dp157
g2
(lp158
I19753
aI19754
aI19755
asg4
(lp159
I19756
asg6
(lp160
I4049
aI70
aI195
aI15469
aI2802
aI1238
aI76
aI7407
aI15
asg8
I21065
sa(dp161
g2
(lp162
I19757
aI19758
aI19759
aI19760
aI19762
aI19763
aI19764
asg4
(lp163
I19761
asg6
(lp164
I703
aI3020
aI3021
aI1384
aI433
aI1571
aI11
aI41
aI16
aI12925
aI627
asg8
I21069
sa(dp165
g2
(lp166
I19775
aI19776
aI19777
aI19778
aI19779
aI19780
aI19781
aI19782
aI19783
asg4
(lp167
I19774
asg6
(lp168
I16
aI5698
aI3561
aI5699
aI1328
aI930
aI2784
aI11
aI30842
aI5186
aI41
asg8
I21086
sa(dp169
g2
(lp170
I19819
aI19821
aI19822
aI19823
aI19824
aI19825
asg4
(lp171
I19820
asg6
(lp172
I4804
aI3
aI4805
aI9
aI64
aI16
aI3714
aI50
aI2676
aI51
aI2679
aI38
aI4806
aI4807
aI742
aI625
aI11
aI7179
aI6399
aI34
asg8
I21130
sa(dp173
g2
(lp174
I19278
aI19279
aI19280
aI19281
aI19282
aI19283
aI19285
aI19286
aI19287
asg4
(lp175
I19284
asg6
(lp176
I842
aI461
aI433
aI1311
aI19
aI16
aI282
aI8737
asg8
I21137
sa(dp177
g2
(lp178
I2906
aI2907
aI2908
aI2909
aI2910
aI2911
aI2912
aI2913
aI2914
aI2915
aI2916
aI2917
asg4
(lp179
I2905
asg6
(lp180
I16
aI4227
aI50
aI1
aI627
aI195
aI886
aI7944
aI2037
asg8
I21147
sa(dp181
g2
(lp182
I11587
aI11588
aI11589
aI11590
aI11591
aI11592
aI11593
aI11594
aI11595
aI11596
aI11598
aI11599
aI11600
aI11601
aI11602
aI11603
aI11604
aI11605
aI11606
asg4
(lp183
I11597
asg6
(lp184
I16
aI678
aI1213
aI51
aI954
aI2161
aI422
aI75
aI251
aI43
aI131
aI422
aI577
aI195
aI772
aI2314
aI2315
aI198
aI15
asg8
I21175
sa(dp185
g2
(lp186
I13635
aI13636
aI13637
aI13638
aI13639
aI13640
aI13641
aI13642
aI13644
aI13645
aI13646
asg4
(lp187
I13643
asg6
(lp188
I16
aI464
aI50
aI4192
aI41
aI1
aI1229
aI50
aI16
aI4193
aI1032
aI16
aI809
aI50
aI1
aI3615
aI183
aI217
aI1300
aI2865
aI64
aI1418
aI16
aI2362
aI433
aI307
aI11
aI41
aI1
aI2255
aI50
aI2999
asg8
I21193
sa(dp189
g2
(lp190
I19846
aI19847
aI19849
aI19850
aI19851
aI19852
aI19853
aI19854
aI19855
aI19856
asg4
(lp191
I19848
asg6
(lp192
I194
aI1468
aI1470
aI195
aI7802
aI9608
aI3905
aI76
aI1
aI342
aI531
asg8
I21217
sa(dp193
g2
(lp194
I19859
aI19860
aI19861
aI19862
asg4
(lp195
I19857
aI19858
aI19863
asg6
(lp196
I1
aI342
aI5265
aI776
aI11
aI16
aI2759
aI776
aI41
aI1
aI62
aI63
aI195
aI6357
aI332
aI41
aI4659
asg8
I21228
sa(dp197
g2
(lp198
I19864
aI19865
aI19867
aI19868
aI19869
asg4
(lp199
I19866
asg6
(lp200
I1
aI1984
aI1585
aI1018
aI529
aI312
aI530
aI531
aI41
aI532
aI38
aI533
aI312
aI534
aI41
aI535
aI195
aI12981
aI3035
aI422
asg8
I21235
sa(dp201
g2
(lp202
I19874
aI19875
aI19876
aI19877
aI19878
aI19879
aI19880
aI19881
aI19882
aI19883
aI19884
aI19885
asg4
(lp203
I19886
asg6
(lp204
I233
aI2416
aI972
aI195
aI6193
aI23855
aI198
asg8
I21245
sa(dp205
g2
(lp206
I19888
aI19889
aI19890
asg4
(lp207
I19887
asg6
(lp208
I16
aI1664
aI73
aI59
aI16
aI2667
aI50
aI10154
aI10155
aI680
aI16
aI425
aI8762
aI23362
asg8
I21257
sa(dp209
g2
(lp210
I8973
aI8974
aI8975
aI8977
aI8978
aI8979
aI8980
aI8981
aI8982
aI8983
aI8984
aI8985
aI8986
aI8987
asg4
(lp211
I8976
asg6
(lp212
I1
aI680
aI50
aI210
aI579
aI11
aI681
aI11
aI1
aI334
aI130
aI41
aI1
aI2092
aI1866
asg8
I21301
sa(dp213
g2
(lp214
I19929
aI19930
asg4
(lp215
I19928
asg6
(lp216
I16
aI12840
aI9675
aI75
aI76
aI1003
aI1
aI12841
aI3
aI2825
aI9
aI49
aI16
aI541
aI1244
aI1213
aI2784
aI11
aI30970
aI5188
aI41
aI15
asg8
I21352
sa(dp217
g2
(lp218
I19950
aI19951
aI19952
aI19953
aI19954
aI19955
aI19956
aI19957
aI19958
aI19960
aI19961
aI19962
aI19963
aI19964
asg4
(lp219
I19959
asg6
(lp220
I2193
aI1427
aI64
aI2194
aI433
aI1156
aI41
aI1019
asg8
I21374
sa(dp221
g2
(lp222
I19969
aI19972
aI19973
aI19974
asg4
(lp223
I19970
aI19971
asg6
(lp224
I707
aI357
aI433
aI7088
aI1355
aI41
aI1
aI371
aI1174
aI15
asg8
I21393
sa(dp225
g2
(lp226
I19982
aI19984
aI19985
aI19986
aI19987
aI19988
aI19989
aI19990
aI19991
aI19992
aI19993
aI19994
aI19995
asg4
(lp227
I19983
asg6
(lp228
I1
aI133
aI309
aI1456
aI11
aI34
aI1184
aI50
aI31
aI309
aI32
aI376
aI43
aI1
aI228
aI1457
aI41
aI1458
aI34
aI1459
aI1460
aI1461
aI41
aI1462
aI38
aI1215
aI41
aI1463
aI433
aI2370
aI19
aI16
aI570
aI59
aI16
aI5589
aI930
asg8
I21406
sa(dp229
g2
(lp230
I20011
aI20012
aI20013
aI20014
aI20015
aI20016
aI20017
aI20018
aI20019
aI20020
aI20021
aI20022
aI20023
aI20024
aI20025
aI20026
aI20027
asg4
(lp231
I20010
asg6
(lp232
I123
aI954
aI34
aI2470
aI50
aI927
aI2471
aI724
aI11
aI2472
aI41
aI917
aI925
aI327
aI76
aI766
aI31010
aI31011
asg8
I21433
sa(dp233
g2
(lp234
I1034
aI1036
aI1037
aI1038
aI1039
aI1040
aI1041
aI1042
aI1043
aI1044
aI1045
aI1046
aI1047
aI1048
aI1049
aI1050
asg4
(lp235
I1035
asg6
(lp236
I99
aI11
aI1
aI2779
aI16233
aI1656
aI50
aI1
aI14417
aI64
aI14
aI16
aI1031
aI11678
aI139
aI150
aI2488
aI1
aI2017
aI38
aI570
aI50
aI1
aI17184
aI738
aI16
aI5017
asg8
I21458
sa(dp237
g2
(lp238
I20048
aI20049
aI20051
aI20052
aI20053
aI20054
aI20055
aI20056
aI20057
aI20058
aI20059
aI20060
asg4
(lp239
I20050
asg6
(lp240
I228
aI50
aI1
aI11188
aI6184
aI2653
aI34
aI1
aI342
aI11189
aI7395
aI64
aI11190
aI11191
aI50
aI11192
aI50
aI60
aI64
aI38
aI11190
aI11193
aI11191
aI50
aI11189
aI11194
aI64
aI38
aI1295
aI102
aI1
aI9022
aI9043
aI38
aI1
aI3274
aI1963
aI1
aI2438
aI50
aI16
aI9022
aI1571
aI11
aI1376
aI7231
aI1022
aI15
asg8
I21486
sa(dp241
g2
(lp242
I20061
aI20062
aI20063
aI20064
aI20065
aI20066
aI20067
aI20068
aI20069
aI20070
aI20071
aI20072
aI20073
aI20074
aI20075
aI20076
aI20077
aI20079
aI20080
aI20081
aI20082
aI20083
asg4
(lp243
I20078
asg6
(lp244
I123
aI954
aI34
aI2470
aI50
aI927
aI2471
aI724
aI11
aI2472
aI41
aI917
aI402
aI433
aI8251
aI217
aI22755
aI3865
aI274
asg8
I21499
sa(dp245
g2
(lp246
I20132
asg4
(lp247
I20131
asg6
(lp248
I34
aI1243
aI433
aI1679
aI3350
aI1355
aI41
aI692
asg8
I21568
sa(dp249
g2
(lp250
I20151
aI20152
aI20153
aI20154
aI20155
aI20159
asg4
(lp251
I20156
aI20157
aI20158
aI20160
asg6
(lp252
I2453
aI1967
aI50
aI1
aI14186
aI8643
aI50
aI3009
aI3
aI9
aI64
aI70
aI1232
aI115
aI43
aI2453
aI1967
aI64
aI43
aI8824
aI1528
aI64
aI2380
aI1
aI528
aI50
aI10710
aI4246
aI10711
aI76
aI3782
aI5026
aI19
aI8973
aI50
aI26
aI6977
aI374
aI10712
aI7032
aI2173
aI76
aI1646
aI16300
aI19
aI11402
aI170
aI8102
aI15
asg8
I21588
sa(dp253
g2
(lp254
I20215
aI20216
aI20217
aI20218
aI20219
aI20220
aI20221
aI20222
aI20223
aI20224
aI20225
aI20226
aI20227
asg4
(lp255
I20228
asg6
(lp256
I315
aI316
aI34
aI317
aI318
aI319
aI102
aI320
aI321
aI75
aI64
aI322
aI323
aI324
aI325
aI38
aI326
aI998
aI195
aI9744
aI10602
aI587
asg8
I21652
sa(dp257
g2
(lp258
I20295
aI20296
aI20297
aI20299
aI20301
aI20302
asg4
(lp259
I20298
aI20300
aI20303
asg6
(lp260
I562
aI69
aI6
aI52
aI195
aI69
aI288
aI11101
aI228
aI195
aI64
aI824
aI64
aI6
aI3825
aI11
aI16
aI6357
aI2173
aI1364
aI1
aI8059
aI584
aI41
aI26184
aI15
asg8
I21730
sa(dp261
g2
(lp262
I20357
aI20360
aI20361
asg4
(lp263
I20358
aI20359
asg6
(lp264
I16
aI4522
aI3
aI9
aI11
aI16
aI4523
aI150
aI2167
aI131
aI793
aI76
aI1523
aI64
aI4524
aI64
aI6
aI1520
aI131
aI4525
aI605
aI16
aI1323
aI4526
aI114
aI75
aI16
aI30
aI4527
aI1150
aI6
aI16
aI4528
aI1490
aI806
aI11
aI41
aI16416
asg8
I21793
sa(dp265
g2
(lp266
I20362
aI20363
aI20364
aI20365
aI20366
aI20368
asg4
(lp267
I20367
asg6
(lp268
I544
aI2370
aI439
aI1
aI930
aI102
aI3029
aI5300
aI31270
aI2171
aI14
asg8
I21798
sa(dp269
g2
(lp270
I20496
asg4
(lp271
I20495
asg6
(lp272
I7722
aI4658
aI2784
aI11
aI31389
aI752
aI749
aI41
asg8
I21930
sa(dp273
g2
(lp274
I20534
aI20535
aI20536
aI20537
aI20538
asg4
(lp275
I20533
asg6
(lp276
I16
aI369
aI50
aI1
aI3608
aI2827
aI64
aI184
aI733
aI76
aI5508
aI64
aI38
aI142
aI1
aI5531
aI38
aI132
aI50
aI1
aI5529
aI38
aI5532
aI195
aI1089
aI1453
aI332
asg8
I21968
sa(dp277
g2
(lp278
I20555
aI20556
aI20557
aI20558
aI20559
aI20560
aI20561
aI20562
aI20563
aI20564
aI20565
aI20566
aI20567
aI20568
aI20569
aI20570
aI20571
aI20572
aI20573
aI20574
asg4
(lp279
I20554
asg6
(lp280
I1
aI6277
aI5548
aI50
aI562
aI38
aI663
aI3
aI6278
aI9
aI11
aI5666
aI76
aI998
aI50
aI6277
aI6279
aI64
aI387
aI99
aI913
aI16
aI6280
aI418
aI50
aI1
aI6281
aI50
aI1
aI208
aI38
aI131
aI6282
aI64
aI150
aI41
aI155
aI14
aI1
aI6142
aI989
aI59
aI1
aI6277
aI2373
aI50
aI1
aI97
aI50
aI6283
aI184
aI1
aI208
aI38
aI131
aI663
aI64
aI6284
aI11
aI1360
aI19
aI16
aI10983
asg8
I21989
sa(dp281
g2
(lp282
I20607
aI20608
aI20609
aI20610
aI20611
aI20612
aI20613
aI20614
aI20615
aI20616
aI20617
aI20618
asg4
(lp283
I20606
asg6
(lp284
I16
aI1950
aI1061
aI7327
aI75
aI76
aI1015
aI1
aI923
aI9997
aI50
aI6341
aI38
aI9000
aI1950
aI11
aI16
aI20006
aI2208
asg8
I22041
sa(dp285
g2
(lp286
I20619
aI20621
aI20622
aI20623
aI20624
aI20625
aI20626
aI20627
aI20628
aI20629
aI20630
asg4
(lp287
I20620
asg6
(lp288
I17428
aI17429
aI4702
aI22
aI625
aI64
aI16
aI3314
aI50
aI1421
aI64
aI17783
aI1083
aI16
aI13239
aI11
aI16
aI13239
aI11
aI16
aI13239
asg8
I22054
sa(dp289
g2
(lp290
I20631
aI20634
aI20635
aI20636
aI20637
asg4
(lp291
I20632
aI20633
asg6
(lp292
I383
aI950
aI4494
aI130
aI647
aI50
aI1594
aI6
aI1545
aI2759
aI14148
aI41
aI2337
aI64
aI38
aI647
aI12654
aI50
aI3084
aI434
aI6
aI1258
aI7804
aI76
aI11
aI22064
aI56
aI6
aI22065
aI724
aI11
aI76
aI11
aI828
aI467
aI657
aI1126
aI7804
aI76
aI11
aI22064
aI8848
aI6
aI4292
aI11
aI16
aI5382
aI59
asg8
I22066
sa(dp293
g2
(lp294
I20638
aI20640
aI20641
aI20642
aI20643
aI20644
aI20645
aI20646
asg4
(lp295
I20639
asg6
(lp296
I17250
aI17251
aI211
aI1
aI269
aI977
aI41
aI1
aI314
aI1418
aI2327
aI2328
asg8
I22073
sa(dp297
g2
(lp298
I20648
aI20649
aI20650
aI20651
aI20652
aI20652
asg4
(lp299
I20647
asg6
(lp300
I125
aI12819
aI3321
aI64
aI99
aI852
aI76
aI856
aI1
aI247
aI5318
aI12820
aI41
aI5002
aI7378
aI11
aI16
aI31479
aI298
asg8
I22081
sa(dp301
g2
(lp302
I3318
aI3319
aI3322
aI3323
aI3324
aI3325
aI3326
aI3327
aI3328
aI3329
aI3330
aI3331
aI3332
aI3333
aI3334
aI3335
aI3336
aI3337
aI3338
aI3339
asg4
(lp303
I3320
aI3321
asg6
(lp304
I5409
aI64
aI4559
aI64
aI5404
aI64
aI5412
aI64
aI5406
aI64
aI3509
aI5405
aI64
aI3509
aI3510
aI64
aI5407
aI5408
aI64
aI6755
aI64
aI38
aI1608
aI940
aI50
aI186
aI41
aI41
aI1
aI129
asg8
I22088
sa(dp305
g2
(lp306
I20695
aI20696
aI20697
aI20698
aI20699
aI20700
aI20701
asg4
(lp307
I20694
asg6
(lp308
I7133
aI1496
aI258
aI943
aI76
aI394
aI943
aI50
aI7032
aI11
aI1
aI3608
aI6
aI1857
aI5265
aI776
aI2394
aI50
aI832
aI7750
aI64
aI17517
aI1857
aI38
aI9187
aI11
aI16
aI1571
aI58
aI59
aI15
asg8
I22151
sa(dp309
g2
(lp310
I20718
aI20719
aI20721
aI20722
aI20723
aI20724
aI20725
aI20726
aI20727
aI20728
asg4
(lp311
I20720
asg6
(lp312
I202
aI59
aI1
aI1080
aI766
aI1620
aI112
aI17087
aI17088
aI41
aI17087
aI8320
aI64
aI8774
aI195
aI16
aI14028
aI1355
asg8
I22175
sa(dp313
g2
(lp314
I19124
aI19125
aI19126
aI19127
asg4
(lp315
I19123
asg6
(lp316
I4145
aI64
aI38
aI133
aI75
aI64
aI34
aI1
aI8159
aI6752
aI2626
aI8160
aI3
aI8161
aI312
aI8162
aI9
aI11
aI16
aI1258
aI50
aI7914
aI71
asg8
I22186
sa(dp317
g2
(lp318
I17877
aI17878
aI17880
aI17881
aI17882
aI17883
aI17884
aI17885
aI17886
asg4
(lp319
I17879
asg6
(lp320
I342
aI8209
aI2676
aI2245
aI7239
aI41
aI10026
aI64
aI1608
aI51
aI33
aI64
aI992
aI64
aI10027
aI64
aI38
aI647
aI16
aI476
aI214
aI50
aI1203
aI38
aI791
aI87
aI76
aI12389
aI134
aI11
aI772
aI18611
aI16
aI3000
aI41
aI1364
aI1
aI1344
aI3028
asg8
I22191
sa(dp321
g2
(lp322
I20833
aI20834
aI20835
aI20836
aI20837
aI20838
aI20839
aI20840
aI20841
aI20842
aI20843
aI20844
aI20845
aI20846
aI20847
aI20848
aI20849
aI20850
aI20851
aI20852
asg4
(lp323
I20832
asg6
(lp324
I5076
aI195
aI26291
aI1355
asg8
I22304
sa(dp325
g2
(lp326
I528
aI530
aI531
aI533
aI534
asg4
(lp327
I529
aI532
asg6
(lp328
I6889
aI3710
aI38
aI7458
aI1498
aI75
aI41
aI7459
aI64
aI76
aI5228
aI5227
aI64
aI70
aI184
aI1
aI62
aI63
aI87
aI76
aI3591
asg8
I22324
sa(dp329
g2
(lp330
I20855
aI20856
aI20857
aI20858
aI20859
aI20860
aI20861
aI20862
asg4
(lp331
I20853
aI20854
asg6
(lp332
I3877
aI50
aI18336
aI41
aI6067
aI11
aI20869
asg8
I22331
sa(dp333
g2
(lp334
I1799
aI1800
aI1801
aI1802
aI1803
aI1804
aI1805
aI1806
aI1807
aI1808
aI1809
aI1810
aI1811
asg4
(lp335
I1798
asg6
(lp336
I3782
aI64
aI5668
aI64
aI6
aI2351
aI38
aI1
aI3784
aI55
aI11
aI92
aI64
aI9156
aI3878
aI64
aI6
aI7574
aI3784
aI627
aI195
aI3496
aI192
aI198
asg8
I22341
sa(dp337
g2
(lp338
I15377
aI15378
asg4
(lp339
I15376
asg6
(lp340
I41
aI1
aI6507
aI2162
aI1
aI14417
aI41
aI8103
aI3
aI1
aI404
aI11
aI1
aI18179
aI9
aI64
aI38
aI3347
aI1
aI14417
aI102
aI1
aI14418
aI2480
aI803
aI50
aI1488
aI1158
aI184
asg8
I22359
sa(dp341
g2
(lp342
I20868
aI20869
aI20870
aI20871
asg4
(lp343
I20867
asg6
(lp344
I16
aI242
aI3589
aI34
aI1
aI11350
aI11351
aI6580
aI19
aI493
aI23
aI64
aI10408
aI64
aI41
aI1794
aI76
aI1
aI7305
aI360
aI3306
aI34
aI1
aI7306
aI7307
aI11
aI2594
aI50
aI1
aI31631
asg8
I22362
sa(dp345
g2
(lp346
I20885
aI20886
aI20887
asg4
(lp347
I20884
asg6
(lp348
I1
aI3784
aI50
aI16
aI5535
aI6
aI1446
aI51
aI4117
aI14897
aI11
aI16
aI14450
aI1944
asg8
I22379
sa(dp349
g2
(lp350
I20904
aI20905
aI20907
aI20908
aI20909
aI20910
aI20911
aI20912
aI20913
aI20914
aI20915
asg4
(lp351
I20906
asg6
(lp352
I134
aI50
aI5404
aI64
aI3509
aI5405
aI64
aI5406
aI64
aI5407
aI5408
aI64
aI5409
aI64
aI3509
aI3510
aI64
aI3509
aI5410
aI64
aI5411
aI64
aI5412
aI64
aI5413
aI64
aI1393
aI5414
aI64
aI5154
aI5414
aI64
aI5415
aI64
aI38
aI5416
aI11
aI352
aI3876
aI75
aI50
aI29844
asg8
I22399
sa(dp353
g2
(lp354
I20916
aI20918
aI20919
aI20920
aI20921
aI20922
aI20923
aI20924
aI20925
aI20926
aI20927
aI20928
aI20929
aI20930
aI20931
aI20932
asg4
(lp355
I20917
asg6
(lp356
I6175
aI38
aI125
aI1
aI208
aI195
aI1
aI1498
aI18769
aI1158
aI184
asg8
I22411
sa(dp357
g2
(lp358
I20933
aI20935
aI20936
asg4
(lp359
I20934
asg6
(lp360
I1
aI133
aI3804
aI511
aI170
aI3675
aI38
aI511
aI170
aI5039
aI91
aI41
aI1
aI62
aI63
aI1107
aI195
aI7589
aI2049
aI211
aI59
aI1315
aI526
aI99
aI41
aI76
aI1
aI7210
asg8
I22426
sa(dp361
g2
(lp362
I20938
aI20939
asg4
(lp363
I20937
asg6
(lp364
I16
aI5146
aI1282
aI34
aI1
aI10112
aI9896
aI1286
aI4860
aI2202
aI11
aI1
aI13996
asg8
I22430
sa(dp365
g2
(lp366
I20951
aI20952
aI20953
aI20954
aI20955
asg4
(lp367
I20950
asg6
(lp368
I4817
aI3
aI4818
aI64
aI4457
aI64
aI288
aI1539
aI691
aI43
aI4819
aI9
aI11
aI16
aI1447
aI4820
aI321
aI41
aI1
aI4821
aI776
aI1008
aI50
aI1107
aI11
aI8154
asg8
I22443
sa(dp369
g2
(lp370
I20658
aI20659
aI20660
aI20661
aI20662
aI20663
aI20664
aI20665
aI20666
aI20668
aI20669
aI20670
aI20671
aI20672
aI20673
aI20674
aI20675
aI20676
aI20677
aI20678
aI20679
aI20680
asg4
(lp371
I20667
asg6
(lp372
I3
aI184
aI1
aI4568
aI4569
aI4570
aI64
aI332
aI52
aI1315
aI3397
aI69
aI9
aI38
aI4571
aI3
aI4572
aI4570
aI64
aI52
aI1286
aI3397
aI69
aI9
aI132
aI50
aI1
aI147
aI170
aI2616
aI11
aI1537
aI76
aI2394
aI50
aI6448
aI813
asg8
I22449
sa(dp373
g2
(lp374
I20964
aI20967
aI20968
asg4
(lp375
I20965
aI20966
asg6
(lp376
I16
aI905
aI41
aI8179
aI4658
aI64
aI5154
aI7288
aI64
aI62
aI63
aI11
aI16
aI12221
aI314
asg8
I22480
sa(dp377
g2
(lp378
I20970
aI20971
aI20972
aI20973
aI20974
aI20975
aI20976
aI20977
aI20978
aI20979
aI20980
aI20981
aI20982
aI20983
aI20984
aI20985
aI20986
aI20987
aI20988
aI20989
aI20990
aI20991
aI20992
aI20993
aI20994
aI20995
aI20996
aI20997
aI20998
asg4
(lp379
I20969
asg6
(lp380
I16
aI4568
aI1498
aI51
aI332
aI52
aI382
aI69
aI6
aI64
aI41
aI1083
aI64
aI52
aI99
aI11
aI382
aI41
aI1
aI706
aI183
aI69
aI11
aI16
aI2903
aI531
aI604
asg8
I22485
sa(dp381
g2
(lp382
I20999
aI21001
aI21002
aI21003
aI15132
aI21004
aI21005
asg4
(lp383
I21000
asg6
(lp384
I184
aI4332
aI76
aI10169
aI948
aI1
aI62
aI63
aI3
aI1
aI52
aI4326
aI69
aI6
aI1
aI52
aI1393
aI69
aI9
aI38
aI1696
aI2840
aI1186
aI134
aI51
aI5151
aI291
aI5152
aI38
aI14
aI1
aI5153
aI63
aI50
aI1394
aI3
aI1
aI52
aI4328
aI69
aI6
aI1
aI52
aI5154
aI69
aI9
aI76
aI75
aI31758
asg8
I22515
sa(dp385
g2
(lp386
I21080
aI21081
aI21082
aI21083
aI21084
asg4
(lp387
I21079
asg6
(lp388
I17593
aI5993
aI342
aI6757
aI13562
aI310
aI14660
asg8
I22593
sa(dp389
g2
(lp390
I21091
aI21092
aI21094
aI21095
aI21096
aI21097
aI21098
aI21099
aI21100
aI21101
aI21102
aI21103
aI21104
aI21105
aI21106
aI21107
aI21108
aI21109
aI21110
aI21111
asg4
(lp391
I21093
asg6
(lp392
I41
aI2673
aI64
aI7415
aI740
aI376
aI43
aI8514
aI2370
aI64
aI7430
aI1675
aI2370
aI6
aI3740
aI740
aI64
aI7032
aI8515
aI64
aI1886
aI64
aI38
aI1694
aI325
aI11
aI31824
aI7337
asg8
I22605
sa(dp393
g2
(lp394
I21116
aI21118
aI21119
aI21120
aI21121
aI21122
aI21123
aI21124
aI21125
aI21126
aI21127
aI21128
aI21129
aI21130
asg4
(lp395
I21117
asg6
(lp396
I5803
aI1297
aI1911
aI5804
aI5805
aI64
aI3163
aI5806
aI5807
aI5808
aI64
aI3157
aI5809
aI5810
aI5811
aI64
aI38
aI4937
aI5809
aI5812
aI5813
aI627
aI11
aI7813
aI1693
aI76
aI7199
aI2187
asg8
I22630
sa(dp397
g2
(lp398
I21132
aI21133
aI21134
aI21135
aI21136
aI21137
aI21138
aI21139
aI21140
aI21141
aI21142
aI21143
asg4
(lp399
I21131
asg6
(lp400
I11205
aI720
aI12815
aI67
aI76
aI217
aI16
aI1040
aI7436
aI680
aI64
aI65
aI656
aI1032
aI4406
aI3455
aI376
aI43
aI29
aI2815
aI38
aI1594
aI2372
aI680
aI720
aI76
aI9491
aI76
aI738
aI16
aI1040
aI13468
aI1031
aI720
aI11
aI16
aI31849
aI1059
aI59
aI324
aI6149
asg8
I22645
sa(dp401
g2
(lp402
I21153
asg4
(lp403
I21152
asg6
(lp404
I16
aI6889
aI3710
aI38
aI7458
aI1498
aI75
aI41
aI7459
aI64
aI76
aI5228
aI5227
aI64
aI70
aI184
aI1
aI62
aI63
aI11
aI16
aI23317
aI6217
asg8
I22667
sa(dp405
g2
(lp406
I21155
aI21156
aI21157
aI21158
asg4
(lp407
I21154
asg6
(lp408
I7171
aI20940
aI6058
aI3309
aI2187
aI1364
aI23318
asg8
I22669
sa(dp409
g2
(lp410
sg4
(lp411
I21159
asg6
(lp412
I1
aI2689
aI5459
aI1203
aI50
aI7549
aI9290
aI9291
aI627
aI11
aI1
aI31862
aI31863
aI1282
asg8
I22674
sa(dp413
g2
(lp414
I21172
aI21173
aI21174
aI21175
aI21176
aI21177
aI21178
aI21180
aI21181
aI21182
aI21183
aI21185
aI21186
aI21187
aI21188
aI21189
aI21190
aI21191
aI21192
aI21193
aI21194
asg4
(lp415
I21179
aI21184
asg6
(lp416
I2193
aI1064
aI64
aI1622
aI195
aI1
aI5208
aI2691
aI2295
aI15
asg8
I22687
sa(dp417
g2
(lp418
I21197
aI21199
aI21200
asg4
(lp419
I21198
asg6
(lp420
I648
aI1229
aI11
aI1934
aI2482
aI102
aI16
aI5223
aI948
aI291
aI64
aI34
aI1316
aI91
aI6
aI34
aI1127
aI50
aI16
aI298
aI11
aI1
aI4921
aI38
aI4925
aI4926
aI50
aI1
aI2086
aI15
asg8
I22709
sa(dp421
g2
(lp422
I21201
asg4
(lp423
I21202
asg6
(lp424
I10933
aI10934
aI3
aI43
aI3385
aI184
aI1
aI52
aI5175
aI10934
aI69
aI6
aI10935
aI10936
aI9
aI38
aI1
aI10937
aI10580
aI132
aI50
aI1
aI4023
aI195
aI4024
aI6251
aI1158
aI184
asg8
I22713
sa(dp425
g2
(lp426
I21219
aI21220
aI21222
aI21223
aI21224
aI21225
aI21226
aI21227
aI21228
aI21229
aI21230
aI21231
aI21232
aI21233
aI21234
aI21235
asg4
(lp427
I21221
asg6
(lp428
I1
aI703
aI5781
aI2480
aI41
aI1
aI1058
aI129
aI64
aI1
aI5566
aI64
aI1
aI5567
aI38
aI1
aI5568
aI11
aI1
aI132
aI50
aI2221
aI2437
aI15
asg8
I22731
sa(dp429
g2
(lp430
I21236
aI21238
asg4
(lp431
I21237
asg6
(lp432
I5409
aI64
aI4559
aI64
aI5404
aI64
aI5412
aI64
aI5406
aI64
aI3509
aI5405
aI64
aI3509
aI3510
aI64
aI5407
aI5408
aI64
aI6755
aI64
aI38
aI1608
aI11
aI16
aI4844
aI9541
asg8
I22748
sa(dp433
g2
(lp434
I21269
aI21270
aI21271
aI21272
aI21273
aI21274
aI21275
aI21276
aI21277
aI21278
aI21279
aI21280
aI21281
aI21282
aI21283
aI21284
aI21285
aI21287
aI21288
aI21289
aI21290
aI21291
aI21292
aI21293
aI21294
aI21295
aI21296
aI21297
asg4
(lp435
I21286
asg6
(lp436
I1376
aI195
aI31909
aI133
aI1616
asg8
I22801
sa(dp437
g2
(lp438
I21133
aI21134
aI21135
aI21136
aI21137
aI21138
aI21139
aI21140
aI21141
aI21142
aI21143
asg4
(lp439
I21131
aI21132
asg6
(lp440
I100
aI11
aI6727
aI1148
aI6728
aI11
aI31849
aI50
aI743
asg8
I22829
sa(dp441
g2
(lp442
I21299
aI21300
aI21301
aI21302
aI21303
asg4
(lp443
I21298
asg6
(lp444
I16
aI2864
aI41
aI150
aI16
aI8140
aI2505
aI8141
aI43
aI16
aI663
aI50
aI1
aI8142
aI50
aI899
aI183
aI376
aI43
aI8143
aI38
aI8144
aI11
aI1756
aI6547
aI1799
asg8
I22842
sa(dp445
g2
(lp446
I21312
aI21313
aI21314
aI21315
aI21316
aI21317
aI21318
asg4
(lp447
I21311
asg6
(lp448
I1084
aI312
aI342
aI13562
aI411
aI1538
aI76
aI966
aI102
aI28666
asg8
I22855
sa(dp449
g2
(lp450
I8210
aI8211
aI8212
aI8213
aI8214
aI8215
aI8216
aI8217
aI8218
aI8219
aI8220
aI8221
aI8222
aI8223
aI8224
asg4
(lp451
I8209
asg6
(lp452
I5005
aI5006
aI464
aI50
aI3208
aI11
aI19370
asg8
I22863
sa(dp453
g2
(lp454
I21343
aI21344
aI21345
aI21346
aI21347
aI21348
aI21349
aI21350
aI21351
aI21352
aI21353
aI21354
aI21355
aI21356
aI21357
aI21358
aI21359
aI21360
aI21361
asg4
(lp455
I21342
asg6
(lp456
I11053
aI1468
aI195
aI8906
aI4666
aI439
asg8
I22902
sa(dp457
g2
(lp458
I16372
aI16373
aI16374
aI16375
aI16376
asg4
(lp459
I16377
asg6
(lp460
I2632
aI11956
aI799
aI13904
asg8
I22922
sa(dp461
g2
(lp462
I21364
aI21365
aI21366
aI21367
aI21368
aI21369
aI21370
aI21371
aI21372
aI21373
aI21374
aI21375
aI21376
aI21377
aI21378
aI21379
aI21381
aI21382
aI21383
aI21384
aI21385
aI21386
aI21387
aI21388
aI21389
aI21390
asg4
(lp463
I21380
asg6
(lp464
I3463
aI1468
aI195
aI4566
aI856
aI16
aI134
asg8
I22931
sa(dp465
g2
(lp466
I21392
aI21393
aI21394
aI21395
aI21396
aI21397
aI21398
aI21399
aI21400
aI21401
aI21402
aI21403
aI21404
aI21405
asg4
(lp467
I21391
asg6
(lp468
I17874
aI9593
aI17875
aI38
aI17876
aI5810
aI17877
aI526
aI1
aI5087
asg8
I22957
sa(dp469
g2
(lp470
I21406
aI21407
aI21408
aI21409
aI21411
aI21412
aI21413
aI21414
aI21415
asg4
(lp471
I21410
asg6
(lp472
I342
aI531
aI50
aI3893
aI5063
aI11
aI352
aI781
aI27966
aI7327
aI75
asg8
I22972
sa(dp473
g2
(lp474
I21422
aI21423
aI21424
aI21425
aI21426
aI21428
aI21429
asg4
(lp475
I21427
asg6
(lp476
I15832
aI17653
aI738
aI2407
aI32022
asg8
I22988
sa(dp477
g2
(lp478
I21430
aI21431
aI21433
aI21436
aI21437
aI21438
asg4
(lp479
I21432
aI21434
aI21435
asg6
(lp480
I21923
aI195
aI1
aI32030
aI1355
asg8
I22996
sa(dp481
g2
(lp482
I21457
aI21458
asg4
(lp483
I21456
aI21459
asg6
(lp484
I2913
aI195
aI10246
aI198
asg8
I23021
sa(dp485
g2
(lp486
I3948
aI3949
aI3950
aI3951
aI3952
aI3953
aI3954
aI3955
aI3956
aI3957
aI3958
aI3959
aI3960
aI3961
aI3962
aI3963
aI3964
aI3965
aI3966
aI3967
aI3968
aI3969
aI3970
aI3971
aI3972
aI3973
asg4
(lp487
I3947
asg6
(lp488
I1406
aI17962
aI50
aI628
aI195
aI12722
aI449
aI15
asg8
I23043
sa(dp489
g2
(lp490
I16350
aI16351
asg4
(lp491
I16349
asg6
(lp492
I16
aI10812
aI14626
aI3
aI14627
aI9
aI7798
aI540
aI1652
aI1323
aI4526
aI38
aI404
aI793
aI1257
aI100
aI12335
aI2670
aI1
aI9385
aI10812
aI10272
aI3
aI7258
aI640
aI9
aI59
aI14628
aI16
aI537
aI14629
aI627
aI195
aI2093
aI1133
aI3143
aI184
aI3669
asg8
I23084
sa(dp493
g2
(lp494
sg4
(lp495
I21495
asg6
(lp496
I7774
aI7775
aI64
aI7776
aI7777
aI38
aI7778
aI7779
aI11
aI5947
aI543
aI73
aI41
aI543
aI15
asg8
I23087
sa(dp497
g2
(lp498
I552
aI21524
aI21526
aI21527
aI21528
aI21529
aI21530
aI21531
aI21532
aI21533
aI21534
aI21535
aI21536
aI21537
asg4
(lp499
I21525
asg6
(lp500
I15112
aI13884
aI41
aI13459
aI4658
aI64
aI3509
aI3510
aI41
aI1
aI62
aI63
aI627
aI11
aI14935
aI1
aI507
aI4145
asg8
I23116
sa(dp501
g2
(lp502
I21539
aI21540
aI21541
aI21542
asg4
(lp503
I21538
asg6
(lp504
I18208
aI18209
aI824
aI6341
aI11
aI16
aI741
aI32118
asg8
I23131
sa(dp505
g2
(lp506
I21543
aI21545
asg4
(lp507
I21544
asg6
(lp508
I8801
aI11
aI1
aI8799
aI1196
aI238
aI59
aI1
aI214
aI50
aI8800
aI269
aI5489
aI4689
aI38
aI3297
aI1203
aI1282
aI34
aI8801
aI8802
aI50
aI8803
aI8804
aI8805
aI64
aI8806
aI872
aI11
aI16
aI32121
aI2488
aI75
aI59
asg8
I23136
sa(dp509
g2
(lp510
I21546
aI21548
aI21549
asg4
(lp511
I21547
asg6
(lp512
I19950
aI19950
aI195
aI17035
aI32125
asg8
I23139
sa(dp513
g2
(lp514
I21580
aI21581
aI21582
aI21584
aI21585
aI21586
aI21587
asg4
(lp515
I21583
asg6
(lp516
I19795
aI64
aI1608
aI195
aI10366
aI3128
aI246
aI422
asg8
I23173
sa(dp517
g2
(lp518
I21594
aI21595
aI21596
aI21597
aI21598
aI21599
aI21600
aI21601
aI21602
aI21603
aI21604
aI21605
aI21606
aI21607
asg4
(lp519
I21593
asg6
(lp520
I16
aI610
aI1734
aI41
aI1
aI2506
aI50
aI1
aI4705
aI3048
aI50
aI1429
aI41
aI1833
aI64
aI43
aI729
aI43
aI1
aI531
aI170
aI2005
aI50
aI1429
aI3
aI17265
aI9
aI38
aI1
aI17266
aI17267
aI3
aI17268
aI6
aI17269
aI9
aI1364
aI1
aI1429
aI4331
aI1083
aI750
aI570
aI1111
asg8
I23186
sa(dp521
g2
(lp522
I21643
aI21644
aI21645
aI21646
aI21647
aI21648
aI21649
aI21650
aI21651
aI21652
aI21653
aI21655
aI21656
aI21657
asg4
(lp523
I21654
asg6
(lp524
I15979
aI17340
aI217
aI3585
aI3586
aI3573
asg8
I23240
sa(dp525
g2
(lp526
I11588
aI11589
aI11590
aI11591
aI11592
aI11593
aI11594
aI11595
aI11596
aI11597
aI11598
aI11599
aI11600
aI11601
aI11602
aI11603
aI11604
aI11605
aI11606
asg4
(lp527
I11587
asg6
(lp528
I1
aI4728
aI38
aI4729
aI4730
aI627
aI11
aI334
aI2315
aI334
aI15
asg8
I23253
sa(dp529
g2
(lp530
I21664
aI21665
aI21666
aI21667
aI21668
aI21669
aI21670
aI21671
aI21672
aI21673
aI21674
aI21675
aI21676
aI21677
aI21678
aI21679
asg4
(lp531
I21663
asg6
(lp532
I10482
aI2693
aI11
aI16
aI7719
aI76
aI16
aI7812
asg8
I23278
sa(dp533
g2
(lp534
I21705
asg4
(lp535
I21704
asg6
(lp536
I16
aI3876
aI518
aI484
aI76
aI17350
aI6229
aI64
aI38
aI76
aI3084
aI17351
aI6229
aI41
aI150
aI112
aI702
aI228
aI3026
aI11
aI112
aI702
aI1698
aI627
aI50
aI596
aI13562
aI32222
aI1540
aI1270
aI67
aI76
aI1158
asg8
I23319
sa(dp537
g2
(lp538
I21712
aI21713
aI21714
aI21715
aI21716
aI21717
aI21718
aI21719
aI21720
aI21721
aI21722
aI21723
aI21724
aI21725
aI21726
aI21727
aI21728
aI21729
aI21730
aI21731
aI21732
asg4
(lp539
I21711
asg6
(lp540
I17798
aI17799
aI428
aI1
aI10014
aI50
aI8526
asg8
I23330
sa(dp541
g2
(lp542
I21747
asg4
(lp543
I21748
asg6
(lp544
I17405
aI17406
aI17407
aI1083
aI801
aI32263
asg8
I23366
sa(dp545
g2
(lp546
I21750
aI21751
aI21752
aI21753
aI21754
aI21755
aI21756
aI21757
aI21758
aI21759
aI21760
aI21761
aI21762
aI21763
aI21764
aI21765
asg4
(lp547
I21749
asg6
(lp548
I17280
aI17281
aI133
aI2391
aI1954
asg8
I23368
sa(dp549
g2
(lp550
I21786
aI21788
aI21789
aI21790
aI21791
aI21792
aI21793
aI21794
aI21795
aI21796
asg4
(lp551
I21787
asg6
(lp552
I11108
aI739
aI2760
aI38
aI1817
aI3061
aI464
aI50
aI770
aI11
aI15976
asg8
I23412
sa(dp553
g2
(lp554
I21797
aI21798
aI21799
aI21800
asg4
(lp555
I21801
asg6
(lp556
I1967
aI2193
aI2326
aI1154
aI1
aI208
aI345
aI59
aI511
aI59
aI29
aI6309
asg8
I23423
sa(dp557
g2
(lp558
I21818
aI21819
aI21820
aI21821
aI21822
aI21823
aI21825
aI21826
aI21827
aI21828
asg4
(lp559
I21824
asg6
(lp560
I761
aI6808
aI464
aI50
aI6437
aI195
aI32329
aI1355
aI41
asg8
I23444
sa(dp561
g2
(lp562
I21829
aI21831
aI21832
aI21833
asg4
(lp563
I21830
asg6
(lp564
I9824
aI1270
aI4660
aI11
aI1445
aI41
aI2187
aI15
asg8
I23455
sa(dp565
g2
(lp566
I21834
aI21835
aI21837
aI21838
aI21839
aI21840
aI21841
aI21842
aI21843
aI21844
aI21845
aI21846
aI21847
asg4
(lp567
I21836
asg6
(lp568
I3007
aI195
aI21638
aI1332
asg8
I23460
sa(dp569
g2
(lp570
I21850
aI21851
aI21852
asg4
(lp571
I21848
aI21849
asg6
(lp572
I16
aI12688
aI5844
aI3
aI12689
aI9
aI11
aI16
aI1090
aI150
aI11
aI4121
aI184
aI49
aI1
aI3837
aI4316
aI11
aI1
aI368
aI4348
aI59
aI1
aI2678
asg8
I23474
sa(dp573
g2
(lp574
I21873
aI21874
aI21875
aI21876
aI21877
aI21878
aI21879
aI21881
aI21882
asg4
(lp575
I21880
asg6
(lp576
I1
aI1571
aI1937
aI17700
aI11039
aI195
aI28
aI22
aI32384
aI117
aI1148
aI1585
asg8
I23499
sa(dp577
g2
(lp578
I21883
aI21885
aI21886
aI21887
aI21888
aI21889
aI21890
aI21891
asg4
(lp579
I21884
asg6
(lp580
I302
aI7110
aI72
aI142
aI471
aI38
aI132
aI50
aI7452
aI3
aI7453
aI7454
aI9
aI50
aI5954
aI64
aI41
aI73
aI50
aI2760
aI7455
aI1
aI471
aI2427
aI217
aI810
aI4674
aI5950
aI64
aI5951
aI64
aI5955
aI64
aI38
aI5952
aI188
aI11
aI1
aI32393
asg8
I23509
sa(dp581
g2
(lp582
I21923
aI21924
aI21925
aI21926
aI21927
aI21928
aI21929
aI21930
aI21931
aI21932
aI21933
aI21934
aI21935
aI21936
aI21937
aI21938
asg4
(lp583
I21922
asg6
(lp584
I1
aI8188
aI76
aI1
aI62
aI63
aI136
aI11
aI16
aI5664
aI5665
aI242
aI50
aI1
aI136
aI170
aI5666
aI2152
aI38
aI1849
aI3213
aI11
aI16
aI10842
aI41
aI19047
asg8
I23545
sa(dp585
g2
(lp586
I10288
aI10289
aI10290
asg4
(lp587
I10287
asg6
(lp588
I17425
aI17426
aI526
aI21911
aI15
asg8
I23562
sa(dp589
g2
(lp590
I21948
aI21950
aI21951
aI21952
aI21953
aI21954
aI21955
aI21956
aI21957
aI21958
aI21959
aI21960
aI21961
aI21962
aI21963
aI21964
asg4
(lp591
I21949
asg6
(lp592
I16
aI537
aI238
aI64
aI41
aI2548
aI5114
aI70
aI384
aI76
aI43
aI16
aI133
aI238
aI64
aI11
aI16
aI1748
aI238
aI51
aI622
aI38
aI14136
aI948
aI307
aI50
aI16
aI1258
aI50
aI434
aI64
aI1128
aI41
aI16
aI1689
aI64
aI254
aI50
aI350
aI307
aI114
aI1140
aI1
aI665
aI1689
aI238
aI3
aI14137
aI9
aI11
aI16
aI3856
aI1571
aI2880
aI15
asg8
I23575
sa(dp593
g2
(lp594
I21984
aI21985
aI21986
asg4
(lp595
I21987
asg6
(lp596
I16
aI9418
aI13613
aI6752
aI274
aI1
aI1908
aI7694
aI255
asg8
I23611
sa(dp597
g2
(lp598
I21989
aI21990
aI21991
aI21992
aI21993
aI21994
aI21995
aI21996
asg4
(lp599
I21988
asg6
(lp600
I17298
aI17299
aI17300
aI526
aI32474
asg8
I23615
sa(dp601
g2
(lp602
sg4
(lp603
I21997
aI21998
asg6
(lp604
I1428
aI419
aI64
aI2316
aI195
aI1
aI314
aI2075
aI286
aI2150
aI1158
aI623
asg8
I23624
sa(dp605
g2
(lp606
I22000
aI22001
aI22002
aI22003
aI22004
aI22005
aI22006
aI22007
aI22008
aI22009
aI22010
aI22011
aI22012
asg4
(lp607
I21999
asg6
(lp608
I16
aI9418
aI13613
aI6752
aI1083
aI1
aI1273
aI59
aI1373
aI1866
asg8
I23626
sa(dp609
g2
(lp610
I22072
aI22074
aI22075
aI22076
aI22077
aI22078
asg4
(lp611
I22073
asg6
(lp612
I4550
aI11
aI3782
aI1923
asg8
I23714
sa(dp613
g2
(lp614
I22080
asg4
(lp615
I22079
asg6
(lp616
I637
aI5302
aI64
aI65
aI1
aI694
aI66
aI948
aI1
aI648
aI11
aI51
aI3
aI4889
aI9
aI5919
aI217
aI16
aI5920
aI5921
aI41
aI1
aI625
aI3
aI721
aI291
aI11
aI488
aI9
aI64
aI5922
aI5923
aI217
aI16
aI5924
aI5921
aI41
aI1
aI625
aI3
aI721
aI291
aI11
aI5925
aI9
aI11
aI16
aI32571
aI3672
asg8
I23721
sa(dp617
g2
(lp618
I22082
aI22083
asg4
(lp619
I22081
asg6
(lp620
I14928
aI12783
aI18587
aI64
aI8017
aI18588
aI64
aI38
aI18589
aI8017
aI18590
aI195
aI32572
aI4779
aI32573
aI198
asg8
I23723
sa(dp621
g2
(lp622
I17478
aI17479
aI17480
aI17481
aI17482
aI17483
aI17484
aI17485
aI17486
aI17487
aI17488
aI17489
aI17490
aI17491
aI17492
aI17493
aI17494
aI17495
aI17496
aI17497
aI17498
aI17499
aI17500
asg4
(lp623
I17474
aI17475
aI17476
aI17477
asg6
(lp624
I41
aI1058
aI316
aI34
aI1
aI11947
aI3729
aI3
aI364
aI115
aI43
aI11948
aI9
aI50
aI1
aI11949
aI64
aI38
aI41
aI433
aI404
aI2230
aI41
aI1
aI11950
aI129
aI526
aI50
aI1
aI330
aI134
asg8
I23804
sa(dp625
g2
(lp626
I22154
aI22155
aI22156
aI22157
aI22158
aI22159
aI22160
aI22161
aI22162
aI22163
aI22164
aI22165
aI22166
aI22167
asg4
(lp627
I22153
asg6
(lp628
I16
aI4565
aI154
aI5558
aI158
aI11
aI32659
aI9798
asg8
I23831
sa(dp629
g2
(lp630
I22185
aI22187
aI22188
aI22189
aI22190
aI22191
aI22192
aI22193
aI22194
aI22195
asg4
(lp631
I22186
asg6
(lp632
I16
aI3265
aI1165
aI76
aI16
aI324
aI2864
aI41
aI150
aI1
aI3592
aI50
aI1
aI261
aI3606
aI64
aI102
aI1
aI957
aI3441
aI50
aI1
aI261
aI1158
aI1148
aI1545
aI6
aI4802
aI318
aI102
aI1
aI2510
aI134
aI2167
aI665
aI5345
aI3867
asg8
I23862
sa(dp633
g2
(lp634
I22217
aI22218
aI22219
aI22220
aI22221
aI22222
aI22223
asg4
(lp635
I22216
asg6
(lp636
I16
aI13257
aI7669
aI184
aI3509
aI19255
aI64
aI12363
aI41
aI1
aI62
aI63
aI1083
aI1
aI1273
aI32684
asg8
I23892
sa(dp637
g2
(lp638
I22246
aI22247
aI22248
aI22250
aI22251
aI22252
aI22253
aI22254
aI22255
aI22256
aI22257
aI22258
aI22259
aI22260
aI22261
aI22262
aI22263
aI22264
aI22265
aI22266
aI22267
asg4
(lp639
I22249
asg6
(lp640
I184
aI2301
aI266
aI210
aI579
aI41
aI1470
aI627
aI11
aI1
aI10395
aI847
asg8
I23921
sa(dp641
g2
(lp642
I3188
aI3190
aI3191
aI3192
aI3193
aI3194
aI3195
aI3196
aI3197
aI3198
aI3199
aI3200
aI3201
aI3202
asg4
(lp643
I3189
asg6
(lp644
I16
aI3067
aI1799
aI1133
aI2510
aI41
aI53
aI3039
aI627
aI11
aI1
aI11352
aI3751
aI526
asg8
I23943
sa(dp645
g2
(lp646
I22268
aI22269
aI22270
aI22272
aI22273
asg4
(lp647
I22271
asg6
(lp648
I5898
aI5899
aI64
aI5543
aI64
aI5900
aI5901
aI38
aI4688
aI11
aI770
aI8050
asg8
I23958
sa(dp649
g2
(lp650
I6208
aI6209
aI6210
aI6211
aI6212
aI6213
aI6214
aI6215
aI6216
aI6217
aI6218
aI6219
aI6220
aI6221
aI6222
aI6223
aI6224
aI6225
aI6226
aI6227
aI6228
aI6229
aI6230
aI6231
aI6232
aI6233
aI6234
asg4
(lp651
I6207
asg6
(lp652
I291
aI1119
aI11
aI76
aI85
aI1
aI2548
aI357
aI76
aI2167
aI1
aI3056
aI5205
aI76
aI1332
aI1024
aI7724
aI102
aI806
aI38
aI2821
aI64
aI5238
aI537
aI1
aI9575
aI4670
aI1871
aI367
aI1
aI957
aI1840
aI2429
aI11
aI16
aI6856
asg8
I23980
sa(dp653
g2
(lp654
I22302
aI22304
aI22305
aI22306
aI22307
aI22308
aI22309
aI22310
aI22311
aI22312
aI22313
asg4
(lp655
I22303
asg6
(lp656
I6175
aI11
aI32229
aI1331
aI245
asg8
I24019
sa(dp657
g2
(lp658
I22315
asg4
(lp659
I22314
asg6
(lp660
I2193
aI1064
aI64
aI1622
aI1
aI129
aI11
aI13030
asg8
I24031
sa(dp661
g2
(lp662
I22322
aI22323
aI22325
aI22326
aI22327
aI22328
aI22329
aI22330
aI22331
aI22332
aI22333
aI22334
aI22335
aI22336
aI22337
aI22338
aI22339
aI22340
aI22341
aI22342
aI22343
aI22344
aI22345
aI22346
aI22347
aI22348
aI22349
aI22350
asg4
(lp663
I22324
asg6
(lp664
I21926
aI21927
aI14
aI367
aI1
aI18270
aI19
aI2385
aI509
aI64
aI1638
aI9883
aI1355
asg8
I24039
sa(dp665
g2
(lp666
I22367
aI22371
asg4
(lp667
I22366
aI22368
aI22369
aI22370
asg6
(lp668
I17471
aI17472
aI11
aI10521
aI184
aI5863
asg8
I24082
sa(dp669
g2
(lp670
I22373
aI22374
aI22375
aI22376
aI22377
aI22378
aI22379
aI22380
aI22381
asg4
(lp671
I22372
asg6
(lp672
I41
aI927
aI64
aI1
aI73
aI12320
aI11
aI385
aI75
aI76
aI384
aI76
aI1
aI487
aI8625
aI584
aI3
aI50
aI1
aI791
aI6
aI1387
aI9
aI11
aI32802
aI32803
asg8
I24088
sa(dp673
g2
(lp674
I22420
asg4
(lp675
I22419
asg6
(lp676
I17068
aI1030
aI11
aI28551
aI3828
asg8
I24143
sa(dp677
g2
(lp678
I22422
aI22423
aI22424
asg4
(lp679
I22421
asg6
(lp680
I18228
aI41
aI1
aI17858
aI4331
aI269
aI76
aI16
aI18229
aI208
aI102
aI1
aI1436
aI43
aI1
aI208
aI170
aI3441
aI9321
aI11
aI14561
aI6538
asg8
I24145
sa(dp681
g2
(lp682
I22435
aI22436
aI22437
aI22438
aI22439
aI22440
aI22441
aI22442
aI22443
aI22444
aI22445
asg4
(lp683
I22434
asg6
(lp684
I2689
aI64
aI11445
aI38
aI284
aI3
aI3388
aI9
aI11
aI214
aI41
aI19047
asg8
I24166
sa(dp685
g2
(lp686
I22446
aI22447
aI22449
aI22450
aI22451
asg4
(lp687
I22448
asg6
(lp688
I761
aI6808
aI11
aI1
aI1180
aI41
aI9587
asg8
I24178
sa(dp689
g2
(lp690
I22452
aI22454
aI22455
aI22456
asg4
(lp691
I22453
asg6
(lp692
I18978
aI18979
aI11
aI2632
aI17410
aI17411
aI64
aI17412
aI11
aI1
aI307
aI50
aI1
aI32868
aI9968
aI1914
aI15
asg8
I24184
sa(dp693
g2
(lp694
I22459
asg4
(lp695
I22457
aI22458
asg6
(lp696
I16
aI1154
aI50
aI2599
aI1798
aI640
aI64
aI142
aI2795
aI640
aI11
aI32873
aI50
aI1316
asg8
I24189
sa(dp697
g2
(lp698
I22482
aI22483
aI22484
aI22485
aI22486
aI22488
aI22489
aI22490
aI22491
aI22492
aI22493
asg4
(lp699
I22487
asg6
(lp700
I1
aI18257
aI18258
aI4219
aI50
aI1
aI18259
aI18260
aI50
aI3509
aI3510
aI8320
aI64
aI3509
aI3510
aI11
aI17145
aI905
aI202
asg8
I24213
sa(dp701
g2
(lp702
I22494
aI22495
aI22496
aI22498
aI22499
aI22500
aI22501
aI22502
aI22503
aI22504
aI22505
aI22506
asg4
(lp703
I22497
asg6
(lp704
I1
aI2760
aI950
aI76
aI8164
aI228
aI170
aI911
aI38
aI2719
aI75
aI228
aI170
aI129
aI38
aI3784
aI76
aI5763
aI724
aI11
aI3194
aI76
aI796
aI291
aI11
aI1
aI804
aI50
aI1683
aI1684
asg8
I24242
sa(dp705
g2
(lp706
I22522
aI22523
aI22524
aI22525
aI22526
asg4
(lp707
I22521
asg6
(lp708
I8114
aI8115
aI1257
aI51
aI79
aI1
aI8116
aI1258
aI11
aI2950
aI50
aI596
aI733
asg8
I24281
sa(dp709
g2
(lp710
I22530
aI22531
aI22532
aI22533
aI22534
asg4
(lp711
I22529
asg6
(lp712
I818
aI543
aI59
aI998
aI50
aI2548
aI38
aI2011
aI5076
aI11
aI653
aI32928
aI4027
asg8
I24289
sa(dp713
g2
(lp714
I22544
aI22545
asg4
(lp715
I22543
asg6
(lp716
I689
aI9613
aI7395
aI3
aI9614
aI9
aI64
aI689
aI5041
aI9615
aI3
aI9616
aI9
aI64
aI1711
aI9615
aI9617
aI3
aI2166
aI9
aI64
aI1
aI689
aI1713
aI1714
aI3
aI6891
aI9
aI11
aI1
aI1840
aI50
aI32949
asg8
I24303
sa(dp717
g2
(lp718
I22626
asg4
(lp719
I22625
asg6
(lp720
I861
aI17656
aI38
aI17657
aI511
aI102
aI368
aI2877
aI38
aI1626
aI64
aI724
aI217
aI16
aI1311
aI50
aI9140
aI38
aI5549
aI2636
aI11
aI6023
aI1373
aI16052
aI23829
asg8
I24396
sa(dp721
g2
(lp722
I22652
aI22653
aI22654
asg4
(lp723
I22651
asg6
(lp724
I19795
aI64
aI1608
aI64
aI62
aI63
aI11
aI16
aI1527
aI18181
aI3436
asg8
I24450
sa(dp725
g2
(lp726
I22671
aI22672
aI22673
aI22674
aI22675
aI22676
asg4
(lp727
I22677
asg6
(lp728
I2139
aI1
aI6050
aI6
aI4983
aI50
aI622
aI1685
aI321
aI6
aI291
aI8485
aI11
aI1
aI8171
aI697
aI50
aI1617
asg8
I24470
sa(dp729
g2
(lp730
I18381
aI18382
asg4
(lp731
I18380
asg6
(lp732
I950
aI6416
aI76
aI1
aI6417
aI6418
aI64
aI569
aI950
aI4792
aI64
aI950
aI2162
aI64
aI6
aI6419
aI948
aI648
aI1703
aI50
aI6417
aI6418
aI11
aI1
aI2779
aI3343
aI818
asg8
I24477
sa(dp733
g2
(lp734
I22697
aI22698
aI22699
asg4
(lp735
I22696
asg6
(lp736
I16
aI5557
aI309
aI11
aI41
aI16
aI4680
aI9335
aI15
asg8
I24498
sa(dp737
g2
(lp738
I22700
aI22702
aI22704
aI22705
aI22706
aI22707
asg4
(lp739
I22701
aI22703
asg6
(lp740
I131
aI5141
aI11
aI1
aI1782
aI50
aI1
aI9266
asg8
I24509
sa(dp741
g2
(lp742
I22709
aI22710
aI22711
aI22712
asg4
(lp743
I22708
asg6
(lp744
I186
aI38
aI2815
aI11
aI1
aI4455
aI59
aI4739
aI14156
asg8
I24517
sa(dp745
g2
(lp746
I22713
aI22715
aI22716
aI22717
aI22718
asg4
(lp747
I22714
asg6
(lp748
I202
aI59
aI1
aI1080
aI766
aI1620
aI112
aI17087
aI17088
aI41
aI17087
aI8320
aI64
aI8774
aI11
aI1
aI1376
aI9733
aI254
aI1373
aI930
aI2156
asg8
I24522
sa(dp749
g2
(lp750
I22728
aI22729
aI22732
asg4
(lp751
I22727
aI22730
aI22731
asg6
(lp752
I16
aI5606
aI50
aI3029
aI2466
aI102
aI16
aI6228
aI11
aI8032
aI112
aI33122
asg8
I24536
sa(dp753
g2
(lp754
I22734
aI22735
asg4
(lp755
I22733
asg6
(lp756
I400
aI1364
aI7240
aI7959
aI43
aI132
aI50
aI1
aI7960
aI7961
aI19
aI1
aI7241
aI3949
aI7243
aI7962
aI64
aI38
aI55
aI7963
aI102
aI1
aI1835
aI7824
aI50
aI7964
aI11
aI41
aI16
aI2386
aI13531
asg8
I24542
sa(dp757
g2
(lp758
I22737
aI22738
aI22739
aI22740
aI22741
aI22742
asg4
(lp759
I22736
asg6
(lp760
I16
aI16651
aI4994
aI51
aI11
aI75
aI64
aI1737
aI404
aI1560
aI64
aI76
aI3905
aI840
aI50
aI1112
aI3
aI4469
aI41
aI5580
aI3791
aI32
aI9
aI64
aI2292
aI3
aI41
aI1
aI324
aI164
aI9
aI64
aI6
aI840
aI50
aI1618
aI11
aI238
aI50
aI1856
aI14619
aI1273
aI50
aI8577
asg8
I24545
sa(dp761
g2
(lp762
I22743
aI22744
aI22745
aI22746
aI22747
aI22749
aI22750
asg4
(lp763
I22748
asg6
(lp764
I29
aI2815
aI38
aI1594
aI2372
aI680
aI720
aI76
aI9491
aI76
aI738
aI16
aI1040
aI13468
aI1031
aI720
aI11
aI1
aI133
aI627
aI50
aI10730
aI15547
asg8
I24579
sa(dp765
g2
(lp766
I22766
aI22767
aI22768
aI22769
asg4
(lp767
I22765
asg6
(lp768
I251
aI11
aI16
aI2683
aI5231
aI64
aI2683
aI3675
aI1798
aI64
aI7489
aI38
aI5236
aI2116
aI33
aI34
aI7490
aI7491
aI11
aI1
aI309
aI33142
asg8
I24601
sa(dp769
g2
(lp770
I22775
aI22776
aI22777
asg4
(lp771
I22774
asg6
(lp772
I7171
aI20940
aI11
aI7587
aI33148
aI33149
asg8
I24610
sa(dp773
g2
(lp774
I22779
aI22780
aI22781
aI22782
aI22783
aI22784
asg4
(lp775
I22778
asg6
(lp776
I1
aI1393
aI3157
aI1781
aI1360
aI112
aI18036
aI15398
aI76
aI1
aI1259
aI1360
aI50
aI1
aI7352
aI62
aI63
aI11
aI682
aI33156
aI184
asg8
I24614
sa(dp777
g2
(lp778
I22803
aI22804
aI22805
aI22807
aI22808
asg4
(lp779
I22806
asg6
(lp780
I16
aI3444
aI1436
aI159
aI38
aI164
aI4581
aI64
aI8264
aI8265
aI64
aI1612
aI64
aI1605
aI1626
aI38
aI771
aI11
aI1
aI33181
asg8
I24646
sa(dp781
g2
(lp782
I4702
aI4704
aI4705
aI4706
aI4707
aI4708
aI4709
aI4710
aI4711
asg4
(lp783
I4703
asg6
(lp784
I3856
aI508
aI6936
aI11
aI13915
aI133
aI1332
asg8
I24652
sa(dp785
g2
(lp786
I22811
aI22812
aI22813
aI22814
aI22815
aI22816
asg4
(lp787
I22809
aI22810
asg6
(lp788
I16
aI6805
aI6127
aI526
aI34
aI6806
aI6807
aI11
aI1
aI5666
aI4954
aI50
aI6287
aI75
aI59
asg8
I24676
sa(dp789
g2
(lp790
I22818
aI22819
aI22820
aI22821
aI22822
aI22823
aI22824
aI22825
aI22826
aI22827
aI22828
aI22829
aI22830
aI22831
aI22832
aI22833
aI22834
aI22835
aI22836
asg4
(lp791
I22817
asg6
(lp792
I16
aI5606
aI50
aI3029
aI2466
aI102
aI16
aI6228
aI11
aI21650
aI21651
aI4222
aI238
asg8
I24684
sa(dp793
g2
(lp794
I22843
aI22844
aI22845
aI22846
aI22847
asg4
(lp795
I22842
asg6
(lp796
I1
aI17428
aI17429
aI4702
aI22
aI625
aI11
aI1973
aI30099
asg8
I24709
sa(dp797
g2
(lp798
I19427
aI19429
aI19430
aI19431
aI19432
aI19433
aI19434
asg4
(lp799
I19428
asg6
(lp800
I18991
aI11
aI6934
aI17054
aI15
asg8
I24715
sa(dp801
g2
(lp802
I22896
asg4
(lp803
I22895
asg6
(lp804
I630
aI258
aI64
aI1376
aI11
aI7718
aI12418
aI507
asg8
I24770
sa(dp805
g2
(lp806
I22905
asg4
(lp807
I22904
asg6
(lp808
I209
aI4249
aI50
aI126
aI92
aI184
aI150
aI228
aI100
aI6309
aI143
aI645
aI64
aI11365
aI64
aI2988
aI3
aI4474
aI9
aI64
aI38
aI147
aI3
aI11522
aI9
aI11
aI15972
aI10995
asg8
I24779
sa(dp809
g2
(lp810
I22914
aI22915
aI22916
aI22917
asg4
(lp811
I22913
asg6
(lp812
I41
aI1
aI11456
aI19761
aI18674
aI369
aI50
aI16117
aI16118
aI11
aI1
aI19440
aI2156
asg8
I24788
sa(dp813
g2
(lp814
I22945
aI22946
asg4
(lp815
I22944
asg6
(lp816
I1970
aI478
aI1270
aI184
aI2133
aI11
aI1
aI803
aI1277
aI1278
aI34
aI342
aI12056
aI2770
aI1297
aI12057
aI1914
aI16
aI1571
aI76
aI5432
aI11
aI1
aI26179
aI59
aI15
asg8
I24818
sa(dp817
g2
(lp818
I22962
aI22964
aI22965
aI22966
aI22967
aI22968
asg4
(lp819
I22963
asg6
(lp820
I2671
aI38
aI802
aI1840
aI50
aI18679
aI4658
aI64
aI8774
aI64
aI62
aI63
aI11
aI1
aI20820
aI19
aI1
aI955
aI41
aI1
aI2678
asg8
I24835
sa(dp821
g2
(lp822
I22986
aI22987
aI22988
aI22989
asg4
(lp823
I22985
asg6
(lp824
I16
aI16222
aI4565
aI211
aI34
aI648
aI3
aI1319
aI9
aI6
aI209
aI2370
aI3
aI3164
aI9
aI41
aI16
aI16223
aI349
aI102
aI16
aI425
aI64
aI4302
aI563
aI7730
aI11
aI33311
aI33312
asg8
I24874
sa(dp825
g2
(lp826
I23014
aI23015
aI23016
aI23017
aI23018
aI23019
aI23020
aI23021
aI23022
aI23023
aI23024
aI23025
aI23026
aI23027
aI23028
aI23029
aI23030
aI23031
aI23032
asg4
(lp827
I23013
asg6
(lp828
I16
aI2596
aI726
aI76
aI3300
aI1203
aI64
aI791
aI64
aI6
aI1039
aI11
aI1
aI5384
aI50
aI23086
aI50
aI1
aI330
aI134
asg8
I24931
sa(dp829
g2
(lp830
I23042
aI23043
aI23044
aI23045
aI23046
aI23047
aI23048
aI23049
aI23050
aI23051
aI23052
aI23053
aI23054
asg4
(lp831
I23041
asg6
(lp832
I5052
aI4658
aI11
aI1
aI8922
aI1358
aI4386
aI7148
asg8
I24959
sa(dp833
g2
(lp834
I23056
aI23057
aI23058
asg4
(lp835
I23055
asg6
(lp836
I159
aI434
aI59
aI5628
aI5629
aI2152
aI11
aI1
aI2759
aI13073
aI5619
aI15
asg8
I24973
sa(dp837
g2
(lp838
I23121
aI23123
aI23124
aI23125
asg4
(lp839
I23122
asg6
(lp840
I16
aI425
aI3071
aI9381
aI819
aI3160
aI41
aI2202
aI76
aI9382
aI9383
aI64
aI584
aI64
aI587
aI64
aI451
aI2586
aI64
aI38
aI1585
aI1422
aI3
aI2795
aI9384
aI9
aI41
aI16
aI3184
aI76
aI4722
aI16
aI9385
aI7672
aI1422
aI38
aI3300
aI1586
aI1
aI819
aI428
aI1253
aI76
aI1387
aI50
aI16
aI9386
aI789
aI1814
aI11
aI33440
aI33441
aI75
aI59
asg8
I25045
sa(dp841
g2
(lp842
sg4
(lp843
I23126
aI23127
asg6
(lp844
I2203
aI1617
aI11
aI70
aI134
aI41
aI7055
aI3
aI999
aI7056
aI1168
aI825
aI7057
aI9
aI11
aI4738
aI33457
aI1450
asg8
I25050
sa(dp845
g2
(lp846
I23242
aI23243
aI23244
aI23245
aI23246
aI23248
aI23249
aI23250
aI23251
aI23252
aI23253
aI23254
aI23255
asg4
(lp847
I23247
asg6
(lp848
I6748
aI18076
aI312
aI23
aI1468
aI18077
aI11
aI1
aI7948
aI4474
aI3606
aI15
asg8
I25194
sa(dp849
g2
(lp850
I23256
aI23258
aI23259
aI23260
aI23261
aI23262
aI23263
aI23264
aI23265
asg4
(lp851
I23257
asg6
(lp852
I10163
aI8320
aI64
aI10164
aI11
aI6692
aI20899
asg8
I25207
sa(dp853
g2
(lp854
I23287
aI23288
aI23289
aI23290
asg4
(lp855
I23286
asg6
(lp856
I11
aI16
aI17414
aI2313
aI64
aI17415
aI64
aI1536
aI38
aI4530
aI11
aI17035
aI682
aI19
aI5345
aI38
aI1
aI1840
asg8
I25237
sa(dp857
g2
(lp858
I23325
aI23326
aI23327
aI23328
aI23329
aI23331
asg4
(lp859
I23330
asg6
(lp860
I1
aI133
aI10565
aI50
aI10566
aI64
aI10567
aI50
aI254
aI3495
aI11
aI1
aI1602
aI238
aI51
aI211
aI41
aI865
aI51
aI190
aI15
asg8
I25276
sa(dp861
g2
(lp862
I23341
aI23342
asg4
(lp863
I23340
asg6
(lp864
I75
aI102
aI7709
aI6
aI404
aI1040
aI4601
aI7710
aI32
aI76
aI7711
aI16
aI4601
aI50
aI7712
aI64
aI119
aI64
aI6
aI2386
aI7713
aI11
aI1
aI888
aI50
aI16
aI8912
asg8
I25291
sa(dp865
g2
(lp866
I20345
aI20346
aI20347
aI20348
aI20349
aI20350
aI20351
aI20352
aI20353
aI20354
aI20355
aI20356
asg4
(lp867
I20344
asg6
(lp868
I761
aI1428
aI1376
aI11
aI1652
aI1
aI750
aI11
aI274
aI202
aI15
asg8
I25294
sa(dp869
g2
(lp870
I23343
aI23344
aI23345
aI23346
aI23347
aI23348
aI23349
aI23350
aI23352
aI23353
aI23354
aI23355
aI23356
asg4
(lp871
I23351
asg6
(lp872
I17913
aI17914
aI11
aI19
aI33645
aI33646
aI1278
aI2488
asg8
I25307
sa(dp873
g2
(lp874
I23357
aI23359
aI23360
asg4
(lp875
I23358
asg6
(lp876
I1
aI11731
aI1585
aI64
aI238
aI1286
aI11732
aI784
aI11733
aI11731
aI64
aI11
aI1
aI11734
aI51
aI2528
aI186
aI100
aI2545
aI3193
aI657
aI11735
aI186
aI11
aI1
aI1602
aI724
aI211
aI1
aI996
aI357
aI9362
asg8
I25320
sa(dp877
g2
(lp878
I23414
aI23415
aI23416
aI23417
aI23418
aI23419
aI23420
aI23421
aI23422
asg4
(lp879
I23413
asg6
(lp880
I17075
aI17076
aI4658
aI64
aI5416
aI64
aI62
aI63
aI11
aI8222
aI33693
aI399
asg8
I25376
sa(dp881
g2
(lp882
I23426
aI23427
aI23428
aI23429
aI23430
aI23431
aI23432
aI23433
aI23434
aI23435
aI23436
aI23437
aI23438
asg4
(lp883
I23425
asg6
(lp884
I14056
aI11
aI1
aI75
aI50
aI1
aI4444
aI6
aI404
aI1006
aI1184
aI76
aI13741
aI6
aI3191
aI16
aI434
aI64
aI16
aI1258
aI50
aI434
aI64
aI6
aI16
aI3223
aI11
aI1
aI2152
aI50
aI1697
aI647
aI15
asg8
I25388
sa(dp885
g2
(lp886
I9412
aI9413
aI9414
aI9415
aI9416
aI9417
aI9418
aI9419
aI9420
aI9421
aI9422
aI9423
aI9424
aI9425
aI9427
aI9428
aI9429
aI9430
aI9431
aI9432
asg4
(lp887
I9426
asg6
(lp888
I2796
aI369
aI11
aI1281
aI16905
aI222
aI1515
aI15
asg8
I25412
sa(dp889
g2
(lp890
I23483
aI23484
aI23485
aI23486
aI23487
aI23488
asg4
(lp891
I23482
asg6
(lp892
I34
aI17187
aI2184
aI1
aI3579
aI50
aI9435
aI38
aI3415
aI11
aI8922
aI16890
aI2187
asg8
I25493
sa(dp893
g2
(lp894
I23500
aI23501
aI23502
aI23503
aI23505
aI23506
aI23507
aI23508
aI23509
aI23510
aI23511
aI23512
aI23513
aI23514
aI23515
aI23516
aI23517
aI23518
aI23519
aI23520
aI23521
aI23522
aI23523
aI23524
aI23525
asg4
(lp895
I23504
asg6
(lp896
I750
aI50
aI20262
aI18674
aI64
aI8774
aI64
aI26
aI3870
aI7864
aI3
aI599
aI5961
aI9
aI184
aI7722
aI11
aI18609
aI2254
aI507
asg8
I25517
sa(dp897
g2
(lp898
I23564
aI23565
aI23566
aI23567
aI23568
aI23569
asg4
(lp899
I23563
asg6
(lp900
I4911
aI11
aI3807
aI20851
aI25559
aI15
asg8
I25577
sa(dp901
g2
(lp902
I23601
aI23603
aI23604
aI23605
aI23606
aI23607
aI23608
aI23609
aI23610
aI23611
aI23612
aI23613
aI23614
aI23615
aI23616
asg4
(lp903
I23602
asg6
(lp904
I3
aI184
aI1
aI4568
aI4569
aI4570
aI64
aI332
aI52
aI1315
aI3397
aI69
aI9
aI38
aI4571
aI3
aI4572
aI4570
aI64
aI52
aI1286
aI3397
aI69
aI9
aI11
aI1
aI464
aI50
aI5310
aI41
aI150
aI254
aI4044
aI217
aI1
aI950
aI76
aI526
aI392
aI6585
asg8
I25617
sa(dp905
g2
(lp906
I23647
aI23648
aI23649
aI23650
aI23651
aI23652
aI23653
aI23654
asg4
(lp907
I23646
asg6
(lp908
I6172
aI59
aI4728
aI18022
aI64
aI16
aI18023
aI41
aI18024
aI64
aI5416
aI11
aI1
aI133
aI4222
aI19329
aI23538
asg8
I25662
sa(dp909
g2
(lp910
I23673
aI23674
aI23675
aI23676
aI23677
aI23678
aI23679
aI23680
aI23681
aI23682
aI23683
aI23684
asg4
(lp911
I23672
asg6
(lp912
I289
aI11
aI1281
aI16905
aI507
asg8
I25707
sa(dp913
g2
(lp914
I23686
aI23687
aI23688
aI23689
aI23690
aI23691
aI23692
aI23693
aI23694
aI23695
aI23696
aI23697
aI23698
aI23699
aI23700
aI23701
aI23702
aI23703
aI23704
asg4
(lp915
I23685
asg6
(lp916
I5779
aI5780
aI11
aI1
aI4466
aI50
aI52
aI12297
aI69
aI15
asg8
I25720
sa(dp917
g2
(lp918
I23731
aI23733
aI23734
aI23735
aI23736
aI23737
aI23738
aI23739
aI23740
aI23741
aI23742
aI23743
aI23744
aI23745
aI23746
aI23747
asg4
(lp919
I23732
asg6
(lp920
I1
aI8094
aI8095
aI3
aI8096
aI143
aI8097
aI8098
aI9
aI64
aI364
aI71
aI8099
aI8095
aI3
aI5519
aI143
aI52
aI8100
aI894
aI69
aI288
aI8096
aI143
aI8099
aI8101
aI9
aI64
aI11
aI132
aI50
aI1
aI975
aI8102
aI50
aI433
aI8103
aI288
aI291
aI1888
aI8104
aI184
aI1
aI8105
aI41
aI8106
aI50
aI8107
aI11
aI1
aI1061
aI50
aI10809
aI170
aI866
asg8
I25772
sa(dp921
g2
(lp922
I3497
aI3499
aI3500
aI3501
aI3502
asg4
(lp923
I3498
asg6
(lp924
I17882
aI22348
aI11
aI1
aI1667
aI50
aI11903
asg8
I25806
sa(dp925
g2
(lp926
I23765
aI23767
aI23768
aI23769
aI23770
aI23771
aI23772
aI23773
aI23774
asg4
(lp927
I23766
asg6
(lp928
I509
aI2401
aI2233
aI5054
aI11
aI10842
aI33977
asg8
I25812
sa(dp929
g2
(lp930
I23779
aI23780
aI23781
aI23782
aI23783
aI23784
aI23785
aI23786
aI23787
aI23788
aI23789
aI23790
aI23791
aI23792
aI23793
aI23794
aI23795
aI23796
aI23797
aI23798
aI23799
aI23800
asg4
(lp931
I23775
aI23776
aI23777
aI23778
asg6
(lp932
I1
aI8799
aI1196
aI238
aI59
aI1
aI214
aI50
aI8800
aI269
aI5489
aI4689
aI38
aI3297
aI1203
aI1282
aI34
aI8801
aI8802
aI50
aI8803
aI8804
aI8805
aI64
aI8806
aI872
aI11
aI33986
aI2088
aI1466
asg8
I25822
sa(dp933
g2
(lp934
I23811
aI23812
aI23813
aI23814
aI23815
aI23816
asg4
(lp935
I23810
asg6
(lp936
I99
aI11
aI16
aI11548
aI34
aI1
aI677
aI917
aI790
aI51
aI1
aI308
aI11
aI8989
aI38
aI1
aI917
aI790
aI768
aI8990
aI59
aI574
aI8991
aI11
aI1
aI238
aI50
aI1
aI15687
aI772
aI2315
aI1315
asg8
I25857
sa(dp937
g2
(lp938
I23817
aI23818
aI23819
aI23820
aI23821
aI23822
aI23823
aI23824
aI23825
aI23826
aI23827
aI23828
aI23829
aI23830
aI23831
aI23832
aI23833
aI23834
aI23835
aI23836
aI23837
aI23838
aI23839
aI23840
aI23842
aI23843
aI23844
asg4
(lp939
I23841
asg6
(lp940
I493
aI1470
aI11
aI1472
aI1797
aI1560
aI51
aI2900
aI34031
aI195
aI15
asg8
I25864
sa(dp941
g2
(lp942
I13420
aI13422
aI13423
asg4
(lp943
I13419
aI13421
asg6
(lp944
I633
aI1696
aI611
aI367
aI1
aI2038
aI6675
aI143
aI4117
aI9000
aI1422
aI38
aI587
aI3
aI861
aI16266
aI412
aI50
aI2324
aI9
aI64
aI5993
aI2386
aI12851
aI64
aI3193
aI1013
aI677
aI156
aI654
aI16267
aI105
aI64
aI38
aI828
aI1261
aI677
aI156
aI16
aI3
aI4916
aI9
aI12164
aI16268
aI6664
aI11
aI11362
aI59
aI13631
asg8
I25892
sa(dp945
g2
(lp946
I23862
aI23863
asg4
(lp947
I23861
asg6
(lp948
I2669
aI518
aI1798
aI3
aI7244
aI9
aI11
aI4678
aI666
aI71
asg8
I25913
sa(dp949
g2
(lp950
I23912
aI23914
aI23915
aI23916
aI23917
asg4
(lp951
I23913
asg6
(lp952
I1798
aI1749
aI410
aI1222
aI184
aI1
aI8505
aI8506
aI8507
aI3
aI8508
aI9
aI11
aI41
aI34090
asg8
I25960
sa(dp953
g2
(lp954
I23943
aI23944
aI23945
aI23946
aI23947
aI23948
aI23949
aI23950
aI23951
aI23952
asg4
(lp955
I23953
asg6
(lp956
I5250
aI64
aI5154
aI7509
aI64
aI5251
aI64
aI6817
aI64
aI9132
aI64
aI38
aI1429
aI11
aI1
aI313
aI48
aI50
aI34102
asg8
I25991
sa(dp957
g2
(lp958
I23954
aI23955
aI23956
aI23958
aI23959
aI23960
asg4
(lp959
I23957
asg6
(lp960
I16247
aI7766
aI50
aI1
aI16248
aI16249
aI10152
aI16250
aI38
aI16251
aI8643
aI50
aI1706
aI11
aI1
aI1110
aI497
aI50
aI16779
asg8
I26001
sa(dp961
g2
(lp962
sg4
(lp963
I23961
asg6
(lp964
I4220
aI11
aI16
aI2760
aI1039
aI34
aI16
aI434
aI6
aI1258
aI150
aI1119
aI76
aI1716
aI9525
aI38
aI5539
aI9526
aI6585
aI49
aI2760
aI64
aI1817
aI64
aI38
aI2759
aI32
aI38
aI790
aI11
aI34122
aI5489
aI15
asg8
I26008
sa(dp965
g2
(lp966
I23962
aI23964
aI23965
aI23966
aI23967
aI23968
asg4
(lp967
I23963
asg6
(lp968
I2626
aI17897
aI11
aI254
aI50
aI1
aI34115
aI1728
asg8
I26009
sa(dp969
g2
(lp970
I23973
aI23974
aI23975
aI23976
aI23977
aI23979
asg4
(lp971
I23978
asg6
(lp972
I17250
aI17251
aI11
aI7718
aI34133
aI1632
aI76
asg8
I26020
sa(dp973
g2
(lp974
I23980
aI23982
aI23983
aI23984
aI23985
aI23986
aI23987
asg4
(lp975
I23981
asg6
(lp976
I24291
aI64
aI24292
aI11
aI1
aI34142
aI184
asg8
I26027
sa(dp977
g2
(lp978
I24025
aI24026
aI24027
aI24028
aI24029
aI24030
aI24031
aI24032
aI24033
asg4
(lp979
sg6
(lp980
I6561
aI11
aI16
aI6562
aI150
aI11
aI526
aI34
aI6563
aI6564
aI1179
aI64
aI6
aI404
aI2441
aI6
aI2438
aI3
aI963
aI6565
aI9
aI11
aI16
aI2121
aI14093
aI15
asg8
I26072
sa.