(lp0
(dp1
S'bad'
p2
(lp3
I0
aI1
aI2
aI4
asS'good'
p4
(lp5
I3
asS'question'
p6
(lp7
I1
aI2
aI3
aI4
aI5
aI6
asS'question_id'
p8
I0
sa(dp9
g2
(lp10
I76
aI77
aI78
aI79
aI80
aI81
aI82
asg4
(lp11
I75
aI83
aI84
asg6
(lp12
I1
aI657
aI2
aI658
aI659
aI25
aI660
asg8
I11
sa(dp13
g2
(lp14
I85
aI86
aI87
aI88
aI89
aI90
aI91
aI92
aI93
aI94
aI95
aI96
aI97
aI99
asg4
(lp15
I98
asg6
(lp16
I1
aI657
aI2
aI14
aI702
aI703
aI217
aI704
asg8
I12
sa(dp17
g2
(lp18
I100
aI101
aI102
aI104
aI105
aI106
aI107
asg4
(lp19
I103
asg6
(lp20
I1
aI7
aI818
aI819
aI299
asg8
I13
sa(dp21
g2
(lp22
I126
aI127
aI129
aI130
aI131
aI132
aI133
aI134
asg4
(lp23
I128
asg6
(lp24
I1
aI2
aI987
aI42
aI988
aI989
aI42
aI990
asg8
I15
sa(dp25
g2
(lp26
I183
aI184
aI185
aI186
aI187
aI188
aI189
aI190
aI191
aI192
aI194
aI195
aI196
aI197
asg4
(lp27
I193
asg6
(lp28
I1
aI122
aI1365
aI1366
aI125
asg8
I20
sa(dp29
g2
(lp30
I210
aI211
aI212
aI213
aI215
aI216
asg4
(lp31
I214
asg6
(lp32
I1
aI2
aI1502
aI1503
aI819
aI328
asg8
I22
sa(dp33
g2
(lp34
I225
aI226
aI227
aI228
aI229
aI230
aI231
aI232
aI233
aI234
aI235
aI236
aI237
aI238
aI239
aI240
aI241
aI242
aI243
aI244
aI245
aI246
aI247
aI248
aI249
aI250
aI251
asg4
(lp35
I224
asg6
(lp36
I1
aI1580
aI58
aI2
aI1581
aI173
aI1580
aI1582
asg8
I24
sa(dp37
g2
(lp38
I253
asg4
(lp39
I252
asg6
(lp40
I1
aI860
aI2
aI1721
aI1722
aI953
aI14
aI1723
asg8
I25
sa(dp41
g2
(lp42
I254
aI256
aI257
aI258
aI259
aI260
aI261
aI262
aI263
aI264
aI265
aI266
aI267
aI268
aI269
asg4
(lp43
I255
asg6
(lp44
I1
aI218
aI2
aI1366
aI1737
aI1092
asg8
I26
sa(dp45
g2
(lp46
I332
aI333
aI334
aI335
aI336
aI337
aI338
aI339
aI340
aI341
aI342
aI344
aI345
aI346
asg4
(lp47
I343
asg6
(lp48
I1
aI657
aI2
aI2132
aI713
aI704
asg8
I35
sa(dp49
g2
(lp50
I347
aI348
aI350
asg4
(lp51
I349
asg6
(lp52
I1
aI446
aI2
aI2211
aI1556
asg8
I36
sa(dp53
g2
(lp54
I375
aI376
aI377
aI378
asg4
(lp55
I374
asg6
(lp56
I1
aI860
aI2
aI2328
aI2329
aI28
aI14
aI1196
aI6
asg8
I38
sa(dp57
g2
(lp58
I380
aI381
aI382
aI383
aI384
aI385
aI386
aI387
aI388
aI389
asg4
(lp59
I379
asg6
(lp60
I1
aI860
aI2
aI14
aI1431
aI2370
aI2371
asg8
I39
sa(dp61
g2
(lp62
I391
aI392
aI393
aI394
aI395
aI396
aI397
aI398
aI399
aI400
aI401
aI402
aI403
aI404
aI405
aI406
aI407
aI408
aI409
aI410
aI411
aI412
asg4
(lp63
I390
asg6
(lp64
I1
aI218
aI2
aI2416
aI2417
aI7
aI226
asg8
I40
sa(dp65
g2
(lp66
I578
aI580
aI581
aI582
aI583
aI584
aI585
aI586
aI587
aI588
aI589
aI590
aI591
aI592
aI593
aI594
aI595
aI596
aI597
aI598
aI599
aI600
aI601
asg4
(lp67
I579
asg6
(lp68
I1
aI860
aI2
aI14
aI1519
aI3163
aI490
aI744
asg8
I56
sa(dp69
g2
(lp70
I607
aI608
aI609
aI610
aI612
aI613
aI614
aI615
aI616
aI617
asg4
(lp71
I611
asg6
(lp72
I1
aI2
aI14
aI2183
aI25
aI100
aI22
aI1142
aI3242
aI1627
asg8
I58
sa(dp73
g2
(lp74
I667
aI668
aI669
aI670
aI671
aI672
aI673
aI674
aI675
aI676
aI677
aI679
aI680
aI681
aI682
aI683
aI684
aI685
aI686
asg4
(lp75
I678
asg6
(lp76
I1
aI779
aI226
aI25
aI14
aI665
asg8
I65
sa(dp77
g2
(lp78
I709
aI710
asg4
(lp79
I708
asg6
(lp80
I1
aI860
aI2
aI3621
aI710
asg8
I67
sa(dp81
g2
(lp82
sg4
(lp83
I751
aI752
asg6
(lp84
I1
aI2
aI1464
aI725
aI338
asg8
I71
sa(dp85
g2
(lp86
I774
aI775
aI777
aI779
aI780
aI781
aI782
aI783
asg4
(lp87
I776
aI778
asg6
(lp88
I1488
aI1646
aI34
aI14
aI655
aI1444
aI841
aI25
aI3836
aI6
asg8
I73
sa(dp89
g2
(lp90
I807
aI808
aI809
aI810
aI811
aI812
aI813
asg4
(lp91
I806
asg6
(lp92
I1488
aI122
aI3937
aI3938
aI122
aI138
aI299
asg8
I76
sa(dp93
g2
(lp94
I827
aI828
aI829
aI830
aI831
aI832
aI833
aI834
aI835
aI836
aI838
aI839
aI840
aI841
aI842
aI843
aI844
aI845
aI846
aI847
aI848
aI849
asg4
(lp95
I837
asg6
(lp96
I1488
aI672
aI2
aI597
aI14
aI4039
aI4040
asg8
I78
sa(dp97
g2
(lp98
I850
aI851
aI852
aI853
aI854
asg4
(lp99
I855
asg6
(lp100
I1
aI122
aI3603
aI1726
aI109
aI1245
aI125
asg8
I79
sa(dp101
g2
(lp102
I856
aI857
aI858
aI859
aI861
aI862
asg4
(lp103
I860
asg6
(lp104
I1
aI779
aI496
aI1714
aI142
aI496
aI10
aI4157
asg8
I80
sa(dp105
g2
(lp106
I863
aI867
aI868
aI869
aI870
aI871
aI872
asg4
(lp107
I864
aI865
aI866
asg6
(lp108
I1
aI122
aI4180
aI4181
aI2635
aI3186
aI4182
asg8
I81
sa(dp109
g2
(lp110
I904
aI905
aI907
aI908
aI909
asg4
(lp111
I906
asg6
(lp112
I1488
aI122
aI14
aI4279
aI33
aI34
aI4280
aI14
aI380
aI25
aI14
aI4281
aI6
asg8
I84
sa(dp113
g2
(lp114
I910
aI912
aI913
aI914
aI915
aI916
aI917
aI918
aI919
aI920
asg4
(lp115
I911
asg6
(lp116
I1488
aI2213
aI2
aI4300
aI2408
aI28
aI4301
aI22
aI6
asg8
I85
sa(dp117
g2
(lp118
I933
aI935
aI936
aI937
aI938
aI939
asg4
(lp119
I934
asg6
(lp120
I1488
aI122
aI7
aI4372
aI1182
aI173
aI10
aI4372
aI1127
asg8
I87
sa(dp121
g2
(lp122
I983
asg4
(lp123
I982
asg6
(lp124
I1488
aI2545
aI2
aI2040
aI2545
asg8
I91
sa(dp125
g2
(lp126
I993
aI995
asg4
(lp127
I994
asg6
(lp128
I1
aI779
aI2856
aI10
aI14
aI4361
asg8
I93
sa(dp129
g2
(lp130
I997
asg4
(lp131
I996
asg6
(lp132
I1
aI779
aI160
aI42
aI3076
aI2
aI24
aI4108
aI6
asg8
I94
sa(dp133
g2
(lp134
I1051
aI1052
aI1053
aI1054
asg4
(lp135
I1050
asg6
(lp136
I1488
aI2213
aI2
aI4704
aI22
aI3958
asg8
I98
sa(dp137
g2
(lp138
I1057
aI1058
asg4
(lp139
I1055
aI1056
asg6
(lp140
I1488
aI1378
aI2
aI22
aI14
aI4712
asg8
I99
sa(dp141
g2
(lp142
I1059
aI1061
aI1062
aI1063
aI1064
aI1065
asg4
(lp143
I1060
asg6
(lp144
I1
aI779
aI725
aI2
aI22
aI14
aI446
aI513
asg8
I100
sa(dp145
g2
(lp146
I1068
aI1069
aI1070
aI1071
aI1072
aI1073
aI1074
aI1075
aI1076
asg4
(lp147
I1066
aI1067
asg6
(lp148
I1
aI2
aI874
aI4733
aI4734
aI354
asg8
I101
sa(dp149
g2
(lp150
I1077
aI1078
aI1079
aI1080
aI1082
aI1083
asg4
(lp151
I1081
aI1084
aI1085
aI1086
aI1087
aI1088
aI1089
asg6
(lp152
I1488
aI2900
aI33
aI979
aI79
asg8
I102
sa(dp153
g2
(lp154
I1096
aI1097
aI1098
aI1099
aI1100
aI1101
aI1102
aI1103
aI1104
asg4
(lp155
I1095
asg6
(lp156
I1488
aI4879
aI2
aI701
asg8
I104
sa(dp157
g2
(lp158
I1115
aI1116
aI1117
aI1118
aI1119
aI1120
aI1121
aI1122
asg4
(lp159
I1113
aI1114
asg6
(lp160
I1
aI779
aI743
aI945
aI22
aI4940
aI4941
asg8
I106
sa(dp161
g2
(lp162
I1148
aI1149
aI1150
asg4
(lp163
I1147
asg6
(lp164
I1488
aI122
aI57
aI224
aI34
aI2
aI7
aI671
aI160
asg8
I112
sa(dp165
g2
(lp166
I1181
aI1182
aI1183
asg4
(lp167
I1184
asg6
(lp168
I1
aI218
aI58
aI1620
aI2
aI22
aI14
aI235
aI236
asg8
I115
sa(dp169
g2
(lp170
I1186
aI1187
asg4
(lp171
I1185
asg6
(lp172
I1488
aI2213
aI22
aI3958
aI2
aI5152
aI480
aI22
asg8
I116
sa(dp173
g2
(lp174
I1222
aI1223
aI1224
asg4
(lp175
I1225
asg6
(lp176
I1488
aI855
aI492
aI1487
aI14
aI969
aI173
aI970
aI2373
aI876
aI87
aI14
aI3721
aI871
aI1244
aI1558
aI64
aI5261
aI66
aI917
aI969
aI6
asg8
I122
sa(dp177
g2
(lp178
I1259
aI1261
aI1262
aI1263
aI1267
aI1269
aI1270
aI1271
asg4
(lp179
I1260
aI1264
aI1265
aI1266
aI1268
asg6
(lp180
I1
aI122
aI7
aI5351
aI299
aI6
asg8
I128
sa(dp181
g2
(lp182
I1286
aI1287
aI1288
aI1289
aI1290
aI1291
aI1292
aI1293
aI1294
aI1295
aI1296
aI1297
aI1298
aI1299
aI1300
aI1301
aI1302
aI1303
aI1305
aI1306
asg4
(lp183
I1304
asg6
(lp184
I1488
aI122
aI5427
aI3097
aI125
asg8
I130
sa(dp185
g2
(lp186
I1307
aI1309
aI1310
aI1311
aI1312
asg4
(lp187
I1308
asg6
(lp188
I1
aI779
aI137
aI705
aI122
aI5493
aI5494
aI142
asg8
I131
sa(dp189
g2
(lp190
I1334
aI1335
aI1336
aI1337
aI1338
aI1339
aI1340
aI1341
aI1342
aI1344
asg4
(lp191
I1343
asg6
(lp192
I1
aI779
aI3194
aI2
aI385
aI22
aI3054
asg8
I134
sa(dp193
g2
(lp194
I1346
asg4
(lp195
I1345
aI1347
asg6
(lp196
I1488
aI528
aI364
aI2
aI5597
asg8
I135
sa(dp197
g2
(lp198
I1349
aI1350
aI1351
aI1352
aI1353
aI1354
aI1355
aI1356
aI1357
aI1358
asg4
(lp199
I1348
asg6
(lp200
I1488
aI122
aI5617
aI224
asg8
I136
sa(dp201
g2
(lp202
I1359
aI1361
asg4
(lp203
I1360
aI1362
asg6
(lp204
I1488
aI122
aI5646
aI122
asg8
I137
sa(dp205
g2
(lp206
I1374
aI1375
asg4
(lp207
I1373
asg6
(lp208
I1488
aI122
aI2
aI42
aI5705
aI746
aI173
asg8
I139
sa(dp209
g2
(lp210
I1376
aI1377
aI1378
aI1379
aI1380
aI1381
aI1382
aI1383
aI1384
aI1386
aI1387
aI1388
aI1389
aI1390
aI1391
asg4
(lp211
I1385
asg6
(lp212
I1
aI2
aI666
aI109
aI1361
aI1362
asg8
I140
sa(dp213
g2
(lp214
I1435
aI1437
aI1438
aI1439
asg4
(lp215
I1436
asg6
(lp216
I1
aI122
aI5859
aI1705
asg8
I144
sa(dp217
g2
(lp218
I1456
aI1457
aI1459
aI1460
aI1461
aI1462
aI1463
aI1464
aI1465
aI1466
aI1467
aI1468
aI1469
aI1470
aI1471
aI1472
aI1473
aI1474
aI1475
aI1476
asg4
(lp219
I1458
asg6
(lp220
I1488
aI672
aI122
aI5924
aI582
aI22
asg8
I147
sa(dp221
g2
(lp222
I1477
aI1478
aI1479
aI1480
aI1481
aI1482
aI1484
aI1485
aI1486
aI1487
aI1488
aI1489
aI1490
aI1491
aI1492
aI1493
asg4
(lp223
I1483
asg6
(lp224
I1
aI779
aI259
aI2
aI22
aI481
aI5989
asg8
I148
sa(dp225
g2
(lp226
I1505
aI1506
aI1507
aI1508
aI1509
asg4
(lp227
I1504
asg6
(lp228
I1
aI779
aI1818
aI22
aI1088
aI6064
asg8
I150
sa(dp229
g2
(lp230
I1535
aI1537
aI1538
aI1539
asg4
(lp231
I1536
asg6
(lp232
I1488
aI122
aI6124
aI122
aI6
asg8
I153
sa(dp233
g2
(lp234
I1542
aI1543
aI1544
aI1545
aI1546
aI1547
aI1548
aI1549
aI1550
aI1551
aI1552
aI1553
aI1555
aI1556
aI1557
aI1558
aI1559
aI1560
aI1561
aI1562
asg4
(lp235
I1554
asg6
(lp236
I1488
aI122
aI658
aI408
aI224
aI34
aI14
aI3418
asg8
I155
sa(dp237
g2
(lp238
I1570
aI1572
aI1573
aI1574
aI1575
aI1576
aI1577
aI1578
aI1579
aI1580
asg4
(lp239
I1571
asg6
(lp240
I1488
aI2
aI6201
aI107
aI22
aI1697
aI953
aI6202
asg8
I157
sa(dp241
g2
(lp242
I1581
aI1582
aI1583
aI1584
aI1585
aI1586
aI1587
aI1588
aI1589
aI1590
aI1591
aI1592
aI1593
aI1595
aI1596
aI1597
aI1598
aI1599
aI1600
aI1601
aI1602
asg4
(lp243
I1594
asg6
(lp244
I1
aI3191
aI6225
aI299
asg8
I158
sa(dp245
g2
(lp246
I1633
aI1634
aI1635
aI1637
aI1638
aI1639
aI1640
aI1641
asg4
(lp247
I1636
asg6
(lp248
I1488
aI672
aI2
aI22
aI1526
aI535
aI6
asg8
I160
sa(dp249
g2
(lp250
I1659
aI1660
aI1662
aI1663
aI1664
aI1665
aI1666
aI1667
aI1668
aI1669
aI1670
aI1671
aI1673
aI1674
aI1675
aI1676
aI1677
aI1678
aI1679
aI1680
aI1681
asg4
(lp251
I1661
aI1672
asg6
(lp252
I1
aI122
aI7
aI830
aI819
aI299
asg8
I162
sa(dp253
g2
(lp254
I1760
aI1761
aI1762
aI1763
aI1764
aI1765
aI1766
aI1767
aI1768
aI1769
aI1770
aI1771
aI1772
aI1773
aI1774
aI1775
aI1776
aI1777
aI1778
asg4
(lp255
I1759
asg6
(lp256
I1488
aI2213
aI2
aI6690
aI1440
aI22
asg8
I169
sa(dp257
g2
(lp258
I1779
aI1780
aI1781
aI1782
aI1783
aI1785
asg4
(lp259
I1784
asg6
(lp260
I1488
aI2213
aI2
aI6731
aI6732
aI58
aI22
asg8
I170
sa(dp261
g2
(lp262
I1798
aI1799
aI1800
aI1801
aI1802
aI1803
aI1804
aI1805
aI1806
aI1807
aI1808
aI1809
aI1810
asg4
(lp263
I1797
asg6
(lp264
I1488
aI122
aI2914
aI120
aI122
asg8
I172
sa(dp265
g2
(lp266
I1811
aI1812
aI1814
aI1815
aI1816
aI1817
aI1818
aI1819
aI1820
aI1821
aI1822
aI1823
aI1824
aI1825
aI1826
aI1827
asg4
(lp267
I1813
asg6
(lp268
I1488
aI122
aI14
aI323
aI121
aI25
aI4261
aI160
asg8
I173
sa(dp269
g2
(lp270
I1828
aI1829
aI1830
aI1831
aI1832
aI1833
aI1835
aI1836
aI1837
aI1838
aI1839
aI1840
asg4
(lp271
I1834
asg6
(lp272
I1
aI779
aI665
aI5198
aI1650
aI22
aI5102
aI1393
asg8
I174
sa(dp273
g2
(lp274
I1903
aI1904
aI1905
aI1906
aI1908
aI1909
aI1910
aI1911
aI1912
asg4
(lp275
I1907
asg6
(lp276
I1
aI779
aI1478
aI5799
aI1843
aI22
aI666
asg8
I182
sa(dp277
g2
(lp278
I1933
aI1934
aI1936
aI1937
aI1938
asg4
(lp279
I1932
aI1935
asg6
(lp280
I1488
aI2213
aI2
aI7111
aI4301
asg8
I187
sa(dp281
g2
(lp282
I1951
aI1952
aI1953
aI1954
aI1955
aI1956
aI1957
aI1958
aI1959
aI1961
aI1962
asg4
(lp283
I1960
asg6
(lp284
I1
aI779
aI1271
aI122
aI6092
aI6093
aI923
aI22
aI7
aI4572
asg8
I190
sa(dp285
g2
(lp286
I1977
aI1979
aI1980
aI1981
aI1982
aI1983
aI1984
asg4
(lp287
I1978
asg6
(lp288
I1488
aI122
aI7
aI941
aI34
aI3244
aI7
aI47
aI224
aI6
asg8
I194
sa(dp289
g2
(lp290
I2006
aI2007
aI2008
aI2009
aI2011
aI2012
aI2013
aI2014
aI2015
aI2016
aI2017
aI2018
aI2019
aI2020
asg4
(lp291
I2010
asg6
(lp292
I1488
aI122
aI14
aI503
aI224
aI173
aI7279
aI7280
aI6
asg8
I197
sa(dp293
g2
(lp294
I2141
aI2142
aI2143
aI2144
aI2145
aI2146
aI2147
aI2148
aI2150
aI2151
aI2152
aI2153
aI2154
aI2155
asg4
(lp295
I2149
asg6
(lp296
I1488
aI122
aI7641
aI667
asg8
I207
sa(dp297
g2
(lp298
I2156
aI2158
asg4
(lp299
I2157
asg6
(lp300
I1488
aI122
aI7675
aI7676
aI3577
asg8
I208
sa(dp301
g2
(lp302
I2185
aI2186
aI2187
aI2188
asg4
(lp303
I2189
asg6
(lp304
I1
aI779
aI7735
aI839
aI2
aI385
aI22
aI1614
aI6
asg8
I211
sa(dp305
g2
(lp306
I2218
aI2219
aI2221
aI2222
asg4
(lp307
I2220
asg6
(lp308
I1488
aI122
aI14
aI2152
aI25
aI5750
aI6424
aI3758
aI1104
aI665
asg8
I214
sa(dp309
g2
(lp310
I2232
aI2233
aI2234
aI2235
asg4
(lp311
I2231
asg6
(lp312
I1488
aI3806
aI2
aI7829
asg8
I217
sa(dp313
g2
(lp314
I2237
aI2238
aI2239
aI2240
aI2241
aI2242
aI2243
aI2244
asg4
(lp315
I2236
asg6
(lp316
I1488
aI122
aI14
aI161
aI201
aI7841
aI203
aI224
aI22
aI1385
asg8
I218
sa(dp317
g2
(lp318
I2256
aI2257
aI2258
aI2259
aI2260
aI2261
aI2262
aI2263
aI2264
aI2265
aI2266
aI2267
aI2268
aI2269
aI2270
aI2272
aI2273
aI2274
aI2275
asg4
(lp319
I2271
asg6
(lp320
I1
aI122
aI3381
aI7898
aI7899
aI125
aI6
asg8
I220
sa(dp321
g2
(lp322
I2294
aI2295
aI2296
aI2297
aI2298
aI2300
aI2301
aI2302
aI2303
aI2304
aI2305
aI2306
aI2307
aI2308
aI2309
asg4
(lp323
I2299
asg6
(lp324
I1
aI779
aI1579
aI2358
asg8
I223
sa(dp325
g2
(lp326
sg4
(lp327
I2347
asg6
(lp328
I1488
aI4384
aI2
aI191
aI5639
aI25
aI505
asg8
I228
sa(dp329
g2
(lp330
I2350
aI2351
aI2352
aI2353
aI2354
aI2356
aI2357
aI2358
asg4
(lp331
I2348
aI2349
aI2355
asg6
(lp332
I1488
aI122
aI324
aI325
aI1950
aI6
asg8
I229
sa(dp333
g2
(lp334
I2359
aI2360
asg4
(lp335
I2361
asg6
(lp336
I1
aI779
aI1127
aI122
aI14
aI1215
aI1088
aI408
aI773
asg8
I230
sa(dp337
g2
(lp338
I2377
aI2378
aI2380
aI2381
aI2382
aI2383
aI2384
aI2385
aI2386
aI2387
asg4
(lp339
I2379
asg6
(lp340
I1
aI779
aI3140
aI142
aI8108
aI1923
aI453
asg8
I232
sa(dp341
g2
(lp342
I2388
aI2389
aI2390
aI2391
aI2392
aI2393
aI2394
aI2395
aI2396
aI2397
aI2398
asg4
(lp343
I2399
asg6
(lp344
I1
aI2
aI7
aI8134
aI354
asg8
I233
sa(dp345
g2
(lp346
I2401
aI2402
aI2403
aI2404
aI2405
aI2406
aI2407
aI2408
aI2409
aI2410
aI2411
aI2412
aI2413
aI2414
aI2415
aI2416
aI2417
asg4
(lp347
I2400
asg6
(lp348
I1488
aI672
aI2
aI1591
aI22
asg8
I234
sa(dp349
g2
(lp350
I2418
aI2419
aI2421
aI2422
aI2423
aI2424
aI2425
aI2426
asg4
(lp351
I2420
asg6
(lp352
I1
aI2
aI8203
aI5508
aI4119
asg8
I235
sa(dp353
g2
(lp354
I2439
asg4
(lp355
I2440
asg6
(lp356
I1488
aI7041
aI2
aI354
aI128
aI3445
aI109
aI8268
asg8
I237
sa(dp357
g2
(lp358
I2451
aI2452
aI2453
aI2454
aI2455
aI2456
aI2457
aI2458
aI2459
aI2460
aI2461
asg4
(lp359
I2450
asg6
(lp360
I1488
aI672
aI2
aI6053
aI22
asg8
I239
sa(dp361
g2
(lp362
I2462
aI2463
aI2464
aI2466
aI2467
aI2468
aI2469
aI2470
aI2471
aI2472
aI2473
aI2474
aI2475
asg4
(lp363
I2465
asg6
(lp364
I1
aI779
aI962
aI10
aI14
aI191
aI870
aI4361
asg8
I240
sa(dp365
g2
(lp366
I2476
aI2477
aI2478
aI2479
asg4
(lp367
I2480
asg6
(lp368
I1
aI122
aI7
aI8325
aI8326
asg8
I241
sa(dp369
g2
(lp370
I2491
asg4
(lp371
I2490
asg6
(lp372
I1488
aI2213
aI2
aI4423
aI6483
aI4034
aI22
asg8
I243
sa(dp373
g2
(lp374
I2493
aI2494
asg4
(lp375
I2492
asg6
(lp376
I1488
aI2213
aI2
aI8377
aI58
aI22
asg8
I244
sa(dp377
g2
(lp378
I2505
aI2506
aI2507
aI2508
aI2509
aI2510
aI2511
aI2512
aI2513
aI2514
aI2515
aI2516
aI2517
aI2518
aI2520
aI2521
aI2522
aI2523
aI2524
aI2525
asg4
(lp379
I2519
asg6
(lp380
I1488
aI1646
aI34
aI8403
aI2018
aI8404
asg8
I247
sa(dp381
g2
(lp382
I2538
aI2539
aI2540
aI2542
asg4
(lp383
I2541
asg6
(lp384
I1
aI779
aI214
aI8485
aI122
aI2898
aI8486
aI142
asg8
I249
sa(dp385
g2
(lp386
I2568
aI2569
aI2571
aI2572
aI2573
aI2574
aI2575
aI2576
aI2577
aI2578
aI2579
aI2580
aI2581
aI2582
aI2583
aI2584
aI2585
aI2586
asg4
(lp387
I2570
asg6
(lp388
I1488
aI993
aI8528
asg8
I251
sa(dp389
g2
(lp390
I2636
aI2637
aI2638
aI2639
aI2640
aI2641
aI2642
aI2644
aI2645
aI2646
asg4
(lp391
I2643
asg6
(lp392
I1488
aI1602
aI25
aI3299
aI8655
aI2
aI57
aI34
aI5634
aI3466
aI34
aI8656
aI385
aI8067
asg8
I255
sa(dp393
g2
(lp394
I2648
aI2649
aI2650
aI2651
asg4
(lp395
I2647
asg6
(lp396
I1
aI2
aI8682
aI255
aI128
aI13
aI7638
asg8
I256
sa(dp397
g2
(lp398
I2653
aI2656
aI2657
aI2658
aI2659
aI2660
aI2661
aI2662
aI2663
aI2664
aI2665
aI2666
aI2667
asg4
(lp399
I2652
aI2654
aI2655
asg6
(lp400
I1
aI122
aI8690
aI2885
aI14
aI2289
aI73
asg8
I257
sa(dp401
g2
(lp402
I2690
aI2691
aI2693
aI2694
aI2695
aI2696
asg4
(lp403
I2692
asg6
(lp404
I1
aI779
aI743
aI945
aI22
aI8783
aI8784
asg8
I260
sa(dp405
g2
(lp406
I2706
aI2707
aI2709
aI2710
aI2711
aI2712
aI2713
asg4
(lp407
I2708
asg6
(lp408
I1
aI779
aI1205
aI22
aI14
aI2289
aI73
asg8
I262
sa(dp409
g2
(lp410
I2714
aI2715
aI2716
aI2717
aI2718
asg4
(lp411
I2719
asg6
(lp412
I1
aI122
aI8830
aI1393
aI319
asg8
I263
sa(dp413
g2
(lp414
I2721
aI2722
aI2723
asg4
(lp415
I2720
asg6
(lp416
I1488
aI2213
aI2
aI8845
aI8846
aI22
asg8
I264
sa(dp417
g2
(lp418
I2732
asg4
(lp419
I2731
asg6
(lp420
I1488
aI57
aI2
aI7
aI4232
aI529
asg8
I266
sa(dp421
g2
(lp422
I2788
aI2789
aI2790
asg4
(lp423
I2787
asg6
(lp424
I1488
aI8937
aI1101
aI8938
asg8
I273
sa(dp425
g2
(lp426
I2830
asg4
(lp427
I2829
asg6
(lp428
I1488
aI2740
aI2
aI9022
aI160
aI4724
asg8
I277
sa(dp429
g2
(lp430
I2873
aI2874
aI2875
aI2876
aI2877
aI2878
aI2879
aI2880
aI2881
aI2882
aI2883
asg4
(lp431
I2872
asg6
(lp432
I1488
aI122
aI14
aI31
aI201
aI9108
aI9109
aI203
aI224
asg8
I281
sa(dp433
g2
(lp434
I2917
aI2918
aI2919
aI2920
aI2921
aI2922
aI2923
aI2924
aI2925
aI2926
aI2927
aI2928
asg4
(lp435
I2916
asg6
(lp436
I1488
aI122
aI9199
aI109
aI2793
asg8
I284
sa(dp437
g2
(lp438
I2956
aI2957
aI2958
aI2959
asg4
(lp439
I2960
asg6
(lp440
I1
aI657
aI9278
aI2
aI22
aI7
aI3611
aI25
aI9279
asg8
I287
sa(dp441
g2
(lp442
I2975
aI2977
aI2978
aI2979
aI2980
aI2981
aI2982
aI2983
aI2984
aI2985
aI2986
aI2987
aI2988
aI2989
aI2990
aI2991
aI2992
aI2993
asg4
(lp443
I2976
asg6
(lp444
I1
aI122
aI14
aI9307
aI2318
aI9308
aI9309
asg8
I290
sa(dp445
g2
(lp446
I2994
aI2996
aI2997
aI2998
aI2999
aI3000
asg4
(lp447
I2995
asg6
(lp448
I1488
aI122
aI1087
aI1793
aI801
aI5914
aI224
asg8
I291
sa(dp449
g2
(lp450
I3027
aI3028
aI3029
aI3030
aI3031
aI3032
aI3033
aI3034
aI3035
aI3036
asg4
(lp451
I3037
asg6
(lp452
I1
aI657
aI1614
aI8561
aI22
aI454
asg8
I294
sa(dp453
g2
(lp454
I3071
aI3072
aI3073
aI3074
aI3075
aI3076
aI3077
aI3078
aI3079
aI3080
aI3081
aI3082
aI3085
aI3086
aI3087
aI3088
aI3089
aI3090
aI3091
aI3092
asg4
(lp455
I3083
aI3084
asg6
(lp456
I1
aI2
aI14
aI567
aI5
asg8
I300
sa(dp457
g2
(lp458
I3093
aI3094
aI3095
aI3096
aI3097
aI3098
aI3099
aI3100
aI3101
aI3103
aI3104
aI3105
aI3106
aI3107
aI3108
aI3109
aI3110
aI3111
asg4
(lp459
I3102
asg6
(lp460
I1488
aI122
aI719
aI1824
aI122
aI133
aI226
asg8
I301
sa(dp461
g2
(lp462
I3121
aI3123
aI3124
aI3125
aI3126
aI3127
asg4
(lp463
I3122
asg6
(lp464
I1
aI779
aI226
aI142
aI2
aI3492
asg8
I304
sa(dp465
g2
(lp466
I3129
aI3130
aI3131
aI3132
aI3133
aI3135
aI3136
aI3137
aI3138
aI3139
asg4
(lp467
I3134
asg6
(lp468
I1488
aI122
aI3059
aI880
asg8
I306
sa(dp469
g2
(lp470
I3140
aI3141
aI3142
aI3144
asg4
(lp471
I3143
asg6
(lp472
I1
aI779
aI9603
aI714
aI2
aI385
asg8
I307
sa(dp473
g2
(lp474
I3165
aI3166
aI3167
aI3168
aI3169
aI3170
aI3171
aI3172
aI3173
aI3174
aI3175
aI3176
aI3178
aI3179
aI3180
aI3181
aI3182
aI3183
aI3184
aI3185
aI3186
aI3187
aI3188
aI3189
aI3190
aI3191
aI3192
aI3193
asg4
(lp475
I3177
asg6
(lp476
I1488
aI2975
aI122
aI14
aI870
aI2523
aI1393
aI923
asg8
I309
sa(dp477
g2
(lp478
I3195
aI3196
aI3197
aI3198
aI3199
aI3200
asg4
(lp479
I3194
asg6
(lp480
I1488
aI122
aI1206
aI9638
aI122
asg8
I310
sa(dp481
g2
(lp482
I3211
aI3212
asg4
(lp483
I3209
aI3210
asg6
(lp484
I1488
aI528
aI364
aI2
aI9681
asg8
I312
sa(dp485
g2
(lp486
I3254
aI3255
aI3256
aI3258
aI3259
aI3260
aI3261
aI3262
aI3263
aI3264
aI3265
aI3266
aI3267
aI3268
aI3269
aI3270
asg4
(lp487
I3257
asg6
(lp488
I1
aI779
aI4598
aI1271
aI122
aI6375
aI9759
aI1568
aI6
asg8
I318
sa(dp489
g2
(lp490
I3323
aI3324
aI3325
aI3326
asg4
(lp491
I3322
asg6
(lp492
I1488
aI2213
aI2
aI9759
aI28
aI7449
asg8
I322
sa(dp493
g2
(lp494
I3327
aI3328
aI3329
aI3330
aI3331
aI3332
aI3333
aI3334
aI3335
aI3336
aI3337
aI3339
aI3340
asg4
(lp495
I3338
asg6
(lp496
I1
aI122
aI9872
aI1037
aI1361
asg8
I323
sa(dp497
g2
(lp498
I3352
aI3353
aI3354
aI3355
aI3356
aI3357
aI3358
aI3359
aI3361
aI3362
aI3363
aI3364
aI3365
aI3366
aI3367
aI3368
asg4
(lp499
I3360
asg6
(lp500
I1
aI657
aI122
aI221
aI160
aI3032
aI10
aI1361
aI1362
asg8
I326
sa(dp501
g2
(lp502
I3407
aI3409
aI3410
aI3411
aI3412
aI3413
asg4
(lp503
I3408
asg6
(lp504
I1488
aI122
aI57
aI492
aI34
aI923
aI7
aI4387
aI22
aI10015
asg8
I329
sa(dp505
g2
(lp506
I3420
aI3421
aI3422
aI3423
aI3424
aI3425
aI3426
aI3427
aI3428
asg4
(lp507
I3419
asg6
(lp508
I1
aI122
aI213
aI10042
aI1705
asg8
I333
sa(dp509
g2
(lp510
I3442
aI3443
aI3445
aI3446
aI3447
aI3448
aI3449
aI3450
aI3451
asg4
(lp511
I3444
asg6
(lp512
I1
aI2736
aI2852
aI3475
aI2
aI2440
asg8
I335
sa(dp513
g2
(lp514
I3469
aI3471
aI3472
asg4
(lp515
I3470
asg6
(lp516
I1
aI2
aI14
aI7283
aI3577
asg8
I338
sa(dp517
g2
(lp518
I3485
aI3486
aI3487
aI3488
aI3489
aI3490
aI3491
aI3493
aI3494
aI3495
aI3496
aI3497
aI3498
aI3499
asg4
(lp519
I3492
asg6
(lp520
I1
aI779
aI125
aI22
aI4846
aI42
aI10151
asg8
I340
sa(dp521
g2
(lp522
I3500
aI3501
aI3502
aI3503
aI3504
aI3505
aI3506
aI3507
aI3508
aI3509
aI3510
aI3511
aI3512
aI3513
aI3514
aI3515
aI3517
aI3518
aI3519
aI3520
aI3521
aI3522
asg4
(lp523
I3516
asg6
(lp524
I1
aI122
aI10171
aI10172
aI125
asg8
I341
sa(dp525
g2
(lp526
I3548
aI3549
aI3551
aI3552
aI3553
asg4
(lp527
I3550
asg6
(lp528
I1
aI779
aI4195
aI122
aI10282
aI142
asg8
I344
sa(dp529
g2
(lp530
I3617
aI3618
asg4
(lp531
I3616
asg6
(lp532
I1488
aI1602
aI25
aI714
aI122
aI10407
aI10408
aI708
asg8
I350
sa(dp533
g2
(lp534
I3620
aI3621
aI3622
asg4
(lp535
I3619
asg6
(lp536
I1488
aI2213
aI2
aI10412
aI10413
aI22
asg8
I351
sa(dp537
g2
(lp538
I3630
aI3631
aI3632
aI3633
aI3634
aI3635
aI3636
asg4
(lp539
I3628
aI3629
asg6
(lp540
I1488
aI122
aI14
aI1241
aI1698
aI247
asg8
I354
sa(dp541
g2
(lp542
I3637
aI3638
aI3639
aI3640
aI3641
aI3642
aI3643
aI3644
aI3645
aI3646
aI3647
aI3648
aI3649
aI3650
aI3651
aI3652
aI3654
aI3655
aI3656
asg4
(lp543
I3653
asg6
(lp544
I1
aI122
aI14
aI2465
aI1393
aI319
asg8
I355
sa(dp545
g2
(lp546
I3671
asg4
(lp547
I3672
asg6
(lp548
I1
aI2
aI14
aI10463
aI5
asg8
I357
sa(dp549
g2
(lp550
I3673
aI3674
aI3675
aI3676
aI3678
aI3679
asg4
(lp551
I3677
asg6
(lp552
I1
aI657
aI867
aI384
aI122
aI10466
aI358
aI34
aI743
aI60
aI10467
aI2483
asg8
I358
sa(dp553
g2
(lp554
I3681
asg4
(lp555
I3680
asg6
(lp556
I1488
aI122
aI10501
aI10502
aI122
asg8
I359
sa(dp557
g2
(lp558
I3687
aI3688
aI3689
aI3690
aI3691
aI3694
aI3695
aI3696
aI3697
aI3698
aI3699
aI3700
aI3701
aI3702
aI3703
asg4
(lp559
I3692
aI3693
asg6
(lp560
I1
aI122
aI7
aI6157
aI160
aI6222
aI299
asg8
I361
sa(dp561
g2
(lp562
I3746
aI3748
aI3749
aI3750
aI3751
aI3752
aI3753
aI3754
asg4
(lp563
I3747
asg6
(lp564
I1
aI218
aI122
aI14
aI3520
aI3704
aI773
asg8
I366
sa(dp565
g2
(lp566
I3780
aI3781
aI3782
aI3783
aI3785
aI3786
aI3787
aI3788
aI3789
aI3790
aI3791
aI3792
aI3793
aI3794
aI3795
asg4
(lp567
I3784
asg6
(lp568
I1
aI657
aI122
aI280
aI376
aI10
aI1361
aI1362
aI474
aI565
asg8
I369
sa(dp569
g2
(lp570
I3796
aI3797
aI3798
aI3799
aI3800
aI3801
aI3802
aI3803
aI3805
aI3806
asg4
(lp571
I3804
asg6
(lp572
I1488
aI1540
aI1625
aI10691
asg8
I370
sa(dp573
g2
(lp574
I3820
aI3821
aI3822
aI3823
aI3824
aI3828
aI3829
aI3830
aI3831
aI3832
aI3833
asg4
(lp575
I3825
aI3826
aI3827
asg6
(lp576
I1
aI2
aI10716
aI6242
aI244
asg8
I372
sa(dp577
g2
(lp578
I3909
aI3910
aI3911
aI3912
aI3913
aI3914
aI3915
aI3916
aI3917
asg4
(lp579
I3908
asg6
(lp580
I1488
aI1378
aI2
aI5114
aI160
aI478
aI22
asg8
I382
sa(dp581
g2
(lp582
I3921
aI3922
aI3923
aI3925
aI3926
aI3927
asg4
(lp583
I3924
asg6
(lp584
I1
aI218
aI142
aI10904
aI10905
aI2
aI2889
aI6
asg8
I384
sa(dp585
g2
(lp586
I3928
aI3929
aI3931
aI3932
aI3933
aI3934
aI3935
asg4
(lp587
I3930
asg6
(lp588
I1
aI779
aI3702
aI2565
aI743
aI2
aI385
aI22
aI14
aI665
asg8
I385
sa(dp589
g2
(lp590
I3937
aI3938
aI3939
aI3940
aI3941
aI3942
aI3943
aI3944
aI3945
aI3946
aI3947
aI3948
aI3949
aI3950
aI3951
aI3952
aI3953
aI3954
aI3955
aI3956
aI3957
aI3958
aI3959
aI3960
aI3961
aI3962
aI3963
aI3964
aI3965
asg4
(lp591
I3936
asg6
(lp592
I1488
aI122
aI64
aI10937
aI66
aI224
aI6
asg8
I386
sa(dp593
g2
(lp594
I3983
aI3985
aI3986
aI3987
aI3988
aI3989
aI3990
aI3991
aI3992
aI3993
aI3994
aI3995
asg4
(lp595
I3984
asg6
(lp596
I1
aI122
aI11030
aI2373
aI5
asg8
I388
sa(dp597
g2
(lp598
I3996
asg4
(lp599
I3997
asg6
(lp600
I1
aI779
aI2696
aI2
aI22
aI14
aI8819
aI477
aI2
aI3785
aI25
aI11051
aI2696
asg8
I389
sa(dp601
g2
(lp602
I3998
aI3999
aI4000
aI4001
aI4002
aI4003
aI4004
aI4005
aI4006
aI4007
aI4009
aI4010
aI4011
asg4
(lp603
I4008
asg6
(lp604
I1488
aI122
aI11056
aI122
asg8
I390
sa(dp605
g2
(lp606
I4012
aI4013
aI4014
aI4016
aI4017
aI4018
aI4019
aI4020
aI4021
aI4022
aI4023
aI4024
asg4
(lp607
I4015
asg6
(lp608
I1
aI122
aI1620
aI515
aI381
aI8676
aI2
aI14
aI1537
aI3808
asg8
I391
sa(dp609
g2
(lp610
I4026
aI4027
asg4
(lp611
I4025
asg6
(lp612
I1488
aI2213
aI2
aI2735
aI11096
aI3037
aI22
aI11097
asg8
I392
sa(dp613
g2
(lp614
I4072
aI4073
aI4074
aI4075
aI4076
aI4077
aI4078
aI4079
aI4080
aI4081
aI4082
asg4
(lp615
I4071
asg6
(lp616
I1
aI2
aI7
aI2108
aI33
aI6
asg8
I396
sa(dp617
g2
(lp618
I4084
aI4085
aI4086
aI4087
aI4088
aI4089
aI4090
aI4091
asg4
(lp619
I4083
asg6
(lp620
I1488
aI122
aI11185
aI42
aI11186
aI224
asg8
I397
sa(dp621
g2
(lp622
I4093
asg4
(lp623
I4092
asg6
(lp624
I1488
aI2213
aI2
aI11195
aI28
aI9901
aI22
asg8
I398
sa(dp625
g2
(lp626
I4105
aI4106
aI4107
aI4108
aI4109
asg4
(lp627
I4104
asg6
(lp628
I1488
aI122
aI6360
aI9547
aI11214
aI122
aI6
asg8
I400
sa(dp629
g2
(lp630
I4126
aI4127
aI4128
aI4129
aI4130
asg4
(lp631
I4125
asg6
(lp632
I1488
aI993
aI7
aI11241
aI22
aI6206
aI11242
asg8
I402
sa(dp633
g2
(lp634
I4157
aI4158
aI4159
asg4
(lp635
I4156
asg6
(lp636
I1
aI2
aI2289
aI88
aI663
asg8
I405
sa(dp637
g2
(lp638
I4190
aI4191
asg4
(lp639
I4192
asg6
(lp640
I1488
aI122
aI7
aI1504
aI8153
aI122
asg8
I409
sa(dp641
g2
(lp642
I4243
aI4244
aI4245
aI4247
aI4248
aI4249
aI4250
aI4251
aI4252
aI4253
aI4254
aI4255
asg4
(lp643
I4246
asg6
(lp644
I1488
aI672
aI11394
aI11395
asg8
I416
sa(dp645
g2
(lp646
I4292
aI4293
aI4294
aI4295
aI4296
aI4297
asg4
(lp647
I4298
asg6
(lp648
I1
aI779
aI876
aI142
aI11481
aI453
aI34
aI30
aI2975
asg8
I420
sa(dp649
g2
(lp650
I4309
aI4310
aI4311
aI4313
aI4314
aI4315
aI4316
asg4
(lp651
I4312
asg6
(lp652
I1488
aI122
aI11520
aI1945
aI9829
asg8
I423
sa(dp653
g2
(lp654
I4333
aI4334
asg4
(lp655
I4332
asg6
(lp656
I1488
aI2213
aI2
aI11582
aI11583
aI22
asg8
I427
sa(dp657
g2
(lp658
I4336
aI4337
aI4338
aI4339
aI4340
aI4341
aI4342
asg4
(lp659
I4335
asg6
(lp660
I1
aI2
aI1464
aI370
aI1540
asg8
I428
sa(dp661
g2
(lp662
I4361
aI4362
aI4363
aI4365
aI4366
aI4367
aI4368
aI4369
aI4370
aI4371
aI4372
aI4373
aI4374
aI4375
aI4376
asg4
(lp663
I4364
asg6
(lp664
I1
aI779
aI1483
aI122
aI1116
aI14
aI11619
aI142
asg8
I430
sa(dp665
g2
(lp666
I4378
aI4379
asg4
(lp667
I4377
asg6
(lp668
I1488
aI672
aI2
aI11653
aI11654
aI128
aI6
asg8
I431
sa(dp669
g2
(lp670
I4380
aI4382
aI4383
aI4384
aI4385
aI4386
aI4387
asg4
(lp671
I4381
asg6
(lp672
I1
aI779
aI714
aI22
aI2619
asg8
I432
sa(dp673
g2
(lp674
I4390
asg4
(lp675
I4388
aI4389
asg6
(lp676
I1
aI779
aI2856
aI2
aI10
aI14
aI870
aI4361
asg8
I433
sa(dp677
g2
(lp678
I4421
aI4422
aI4423
asg4
(lp679
I4420
asg6
(lp680
I1488
aI122
aI11708
aI122
asg8
I436
sa(dp681
g2
(lp682
I4424
asg4
(lp683
I4425
aI4426
asg6
(lp684
I1488
aI122
aI1805
aI5269
aI746
aI173
asg8
I437
sa(dp685
g2
(lp686
I4449
aI4450
aI4451
aI4452
aI4453
aI4454
aI4455
aI4456
aI4457
aI4458
aI4459
aI4460
aI4462
aI4463
asg4
(lp687
I4461
asg6
(lp688
I1488
aI672
aI2
aI14
aI521
aI11743
asg8
I441
sa(dp689
g2
(lp690
I4475
aI4476
aI4477
aI4478
asg4
(lp691
I4473
aI4474
asg6
(lp692
I1488
aI122
aI11801
aI224
asg8
I443
sa(dp693
g2
(lp694
I4512
aI4513
aI4514
aI4515
aI4516
aI4517
asg4
(lp695
I4511
asg6
(lp696
I1488
aI122
aI1823
aI25
aI2592
aI1950
asg8
I446
sa(dp697
g2
(lp698
I4561
aI4563
aI4564
aI4565
aI4566
aI4567
aI4568
aI4569
aI4570
asg4
(lp699
I4562
asg6
(lp700
I1488
aI122
aI371
aI2012
aI11912
aI10
aI7765
aI224
asg8
I451
sa(dp701
g2
(lp702
I4580
aI4581
aI4582
aI4583
aI4584
aI4585
aI4586
aI4587
aI4588
aI4589
aI4590
aI4591
aI4592
aI4593
aI4594
aI4595
asg4
(lp703
I4579
asg6
(lp704
I1488
aI2213
aI2
aI1235
aI11942
aI22
aI6
asg8
I453
sa(dp705
g2
(lp706
I4633
aI4634
asg4
(lp707
I4635
asg6
(lp708
I1488
aI94
aI142
aI12019
aI398
aI477
asg8
I457
sa(dp709
g2
(lp710
I4706
aI4707
aI4708
aI4709
aI4710
aI4711
aI4712
aI4713
aI4714
aI4715
aI4716
aI4717
aI4718
aI4719
aI4720
aI4721
aI4722
asg4
(lp711
I4705
asg6
(lp712
I1
aI860
aI7
aI1247
aI12124
aI4549
asg8
I464
sa(dp713
g2
(lp714
I4734
aI4735
aI4736
aI4737
aI4738
aI4739
aI4741
aI4742
aI4743
aI4744
aI4745
aI4746
aI4747
aI4748
aI4749
asg4
(lp715
I4740
asg6
(lp716
I1
aI779
aI743
aI2
aI1650
aI22
aI14
aI1375
asg8
I466
sa(dp717
g2
(lp718
I4831
aI4832
aI4833
aI4834
aI4836
aI4837
aI4838
aI4839
aI4840
aI4841
aI4842
aI4843
asg4
(lp719
I4835
asg6
(lp720
I1488
aI58
aI7381
aI2
aI33
aI173
asg8
I477
sa(dp721
g2
(lp722
I4845
aI4846
aI4847
aI4848
aI4849
aI4850
aI4851
aI4852
aI4853
asg4
(lp723
I4844
asg6
(lp724
I1488
aI7159
aI2
aI12399
aI10
asg8
I478
sa(dp725
g2
(lp726
I4859
aI4860
aI4861
aI4862
aI4863
aI4864
aI4865
aI4866
aI4867
aI4868
aI4869
asg4
(lp727
I4858
asg6
(lp728
I1488
aI122
aI12423
aI122
asg8
I480
sa(dp729
g2
(lp730
I4876
aI4877
aI4878
asg4
(lp731
I4875
asg6
(lp732
I1488
aI1602
aI7
aI2
aI12449
asg8
I482
sa(dp733
g2
(lp734
I4922
aI4923
aI4924
aI4926
asg4
(lp735
I4925
asg6
(lp736
I1
aI779
aI5948
aI4134
aI22
aI221
aI160
asg8
I488
sa(dp737
g2
(lp738
I4928
aI4929
aI4930
aI4931
asg4
(lp739
I4927
asg6
(lp740
I1488
aI2005
aI2614
aI6
aI1851
aI54
aI1305
aI660
aI6
asg8
I489
sa(dp741
g2
(lp742
sg4
(lp743
I4935
asg6
(lp744
I1
aI779
aI12551
aI839
aI2
aI385
asg8
I491
sa(dp745
g2
(lp746
I4936
aI4937
aI4938
aI4939
aI4940
aI4942
aI4943
aI4944
aI4945
aI4946
aI4947
aI4948
asg4
(lp747
I4941
asg6
(lp748
I1488
aI1037
aI14
aI430
aI2073
asg8
I492
sa(dp749
g2
(lp750
I4958
aI4959
aI4960
asg4
(lp751
I4957
asg6
(lp752
I1
aI2
aI512
aI1794
aI6
asg8
I494
sa(dp753
g2
(lp754
I4964
aI4966
aI4967
aI4968
aI4969
asg4
(lp755
I4965
asg6
(lp756
I1488
aI993
aI2810
aI2005
asg8
I496
sa(dp757
g2
(lp758
I4970
aI4971
aI4972
aI4973
aI4975
aI4976
aI4977
aI4978
asg4
(lp759
I4974
asg6
(lp760
I1488
aI122
aI12603
aI6573
aI12604
aI224
asg8
I497
sa(dp761
g2
(lp762
I4979
aI4981
aI4982
asg4
(lp763
I4980
asg6
(lp764
I1488
aI122
aI12622
aI6376
aI224
asg8
I498
sa(dp765
g2
(lp766
I5030
aI5031
aI5032
aI5035
aI5036
aI5037
aI5038
aI5039
aI5040
asg4
(lp767
I5033
aI5034
asg6
(lp768
I1
aI779
aI384
aI142
aI7
aI1841
aI864
aI173
aI14
aI2310
asg8
I502
sa(dp769
g2
(lp770
I5076
aI5077
aI5078
aI5079
aI5080
aI5081
aI5082
aI5083
aI5084
aI5085
aI5086
aI5087
aI5088
aI5090
asg4
(lp771
I5089
asg6
(lp772
I1
aI779
aI5296
aI25
aI1363
aI2
aI385
asg8
I508
sa(dp773
g2
(lp774
I5092
aI5093
aI5094
aI5095
asg4
(lp775
I5091
asg6
(lp776
I1488
aI122
aI57
aI224
aI381
aI291
aI2
aI1944
aI615
aI6
asg8
I509
sa(dp777
g2
(lp778
I5096
aI5098
aI5099
asg4
(lp779
I5097
asg6
(lp780
I1488
aI392
aI855
aI2
aI1454
aI1455
asg8
I510
sa(dp781
g2
(lp782
I5152
aI5153
aI5154
aI5155
aI5157
asg4
(lp783
I5156
asg6
(lp784
I1488
aI12764
aI22
aI14
aI734
asg8
I517
sa(dp785
g2
(lp786
I5169
aI5170
aI5171
aI5172
aI5173
aI5175
aI5176
aI5177
aI5178
aI5179
aI5180
aI5181
aI5182
aI5183
aI5184
aI5185
aI5186
asg4
(lp787
I5174
asg6
(lp788
I1488
aI122
aI12913
aI122
aI69
aI12914
aI2747
asg8
I519
sa(dp789
g2
(lp790
I5188
aI5189
aI5190
aI5191
asg4
(lp791
I5187
asg6
(lp792
I1488
aI706
aI870
aI4724
aI224
asg8
I520
sa(dp793
g2
(lp794
I5206
aI5207
aI5209
aI5211
aI5212
aI5213
asg4
(lp795
I5208
aI5210
asg6
(lp796
I1
aI779
aI1205
aI22
aI14
aI73
asg8
I522
sa(dp797
g2
(lp798
I5214
aI5215
aI5216
aI5219
aI5220
asg4
(lp799
I5217
aI5218
asg6
(lp800
I1
aI657
aI122
aI7
aI214
aI3510
aI5773
asg8
I523
sa(dp801
g2
(lp802
I5221
asg4
(lp803
I5222
asg6
(lp804
I1
aI779
aI7888
aI122
aI12981
aI12982
aI142
asg8
I524
sa(dp805
g2
(lp806
I5224
aI5225
aI5226
asg4
(lp807
I5223
asg6
(lp808
I1488
aI122
aI7
aI3655
aI5544
aI2661
aI6
asg8
I525
sa(dp809
g2
(lp810
I5227
aI5228
aI5229
aI5230
aI5232
aI5233
aI5234
aI5235
aI5236
aI5237
aI5238
aI5239
asg4
(lp811
I5231
asg6
(lp812
I1488
aI122
aI14
aI2808
aI224
aI10
aI14
aI6736
aI4361
asg8
I526
sa(dp813
g2
(lp814
I5247
aI5248
aI5249
aI5250
aI5251
aI5252
aI5253
aI5254
aI5256
aI5257
aI5258
aI5259
aI5260
asg4
(lp815
I5255
asg6
(lp816
I1
aI26
aI122
aI13021
aI142
aI4545
asg8
I528
sa(dp817
g2
(lp818
I5262
aI5263
asg4
(lp819
I5261
asg6
(lp820
I1488
aI1378
aI2
aI1197
aI1440
aI478
asg8
I529
sa(dp821
g2
(lp822
I5315
asg4
(lp823
I5316
asg6
(lp824
I1488
aI122
aI14
aI13105
aI13106
aI76
aI25
aI14
aI2810
aI122
asg8
I533
sa(dp825
g2
(lp826
I5317
aI5319
aI5320
aI5321
aI5322
aI5323
aI5324
aI5325
aI5326
aI5327
aI5328
aI5329
aI5330
aI5331
aI5332
aI5333
aI5334
aI5335
aI5336
aI5337
aI5338
aI5339
asg4
(lp827
I5318
asg6
(lp828
I1
aI779
aI1304
aI122
aI7
aI2289
aI142
asg8
I534
sa(dp829
g2
(lp830
I5341
aI5342
asg4
(lp831
I5340
asg6
(lp832
I1488
aI7
aI13147
aI38
asg8
I535
sa(dp833
g2
(lp834
I5343
aI5346
aI5347
asg4
(lp835
I5344
aI5345
asg6
(lp836
I1488
aI212
aI2
aI13155
asg8
I536
sa(dp837
g2
(lp838
I5365
aI5366
aI5367
aI5368
aI5369
aI5370
aI5371
aI5373
aI5374
asg4
(lp839
I5372
asg6
(lp840
I1488
aI2
aI14
aI523
aI25
aI78
aI13184
asg8
I538
sa(dp841
g2
(lp842
I5375
aI5376
aI5378
aI5379
aI5380
asg4
(lp843
I5377
asg6
(lp844
I1488
aI993
aI1716
aI186
aI2231
asg8
I539
sa(dp845
g2
(lp846
I5381
aI5382
aI5383
aI5384
aI5385
aI5387
aI5388
aI5389
aI5390
aI5391
aI5392
aI5393
aI5394
asg4
(lp847
I5386
asg6
(lp848
I1
aI779
aI511
aI556
aI34
aI3237
aI3061
asg8
I540
sa(dp849
g2
(lp850
I5395
aI5397
aI5398
aI5399
aI5400
aI5401
aI5402
aI5403
aI5404
aI5405
aI5406
aI5407
aI5408
aI5409
aI5410
aI5411
aI5412
aI5413
aI5414
asg4
(lp851
I5396
asg6
(lp852
I1488
aI1127
aI2
aI14
aI13215
aI25
aI5848
aI3602
aI109
aI6
asg8
I541
sa(dp853
g2
(lp854
I5416
aI5417
aI5418
aI5419
aI5420
aI5421
aI5422
aI5423
aI5424
aI5425
aI5426
aI5427
aI5428
aI5429
aI5430
aI5431
aI5432
aI5433
aI5434
asg4
(lp855
I5415
asg6
(lp856
I1488
aI1228
aI2
aI4592
aI4593
asg8
I542
sa(dp857
g2
(lp858
I5461
aI5464
aI5465
aI5466
aI5467
asg4
(lp859
I5462
aI5463
asg6
(lp860
I1
aI2
aI212
aI1243
aI22
aI130
aI6
asg8
I546
sa(dp861
g2
(lp862
I5468
aI5469
aI5470
aI5471
aI5472
aI5473
aI5474
aI5475
aI5476
aI5477
aI5478
aI5479
aI5481
aI5482
aI5483
aI5484
aI5485
aI5486
aI5487
aI5488
asg4
(lp863
I5480
asg6
(lp864
I1488
aI872
aI142
aI869
aI60
aI12691
aI6
asg8
I547
sa(dp865
g2
(lp866
I5489
aI5491
aI5492
aI5493
aI5494
aI5495
aI5496
aI5497
aI5498
aI5499
aI5500
aI5501
aI5502
asg4
(lp867
I5490
asg6
(lp868
I1488
aI781
aI191
aI4141
aI54
aI1543
aI43
asg8
I548
sa(dp869
g2
(lp870
I5504
aI5505
aI5506
aI5507
asg4
(lp871
I5503
asg6
(lp872
I1488
aI122
aI14
aI13332
aI2013
aI34
asg8
I549
sa(dp873
g2
(lp874
I5509
aI5510
aI5511
aI5512
aI5513
aI5514
aI5515
aI5516
aI5517
aI5518
aI5519
aI5520
aI5521
aI5522
aI5523
aI5524
aI5525
asg4
(lp875
I5508
asg6
(lp876
I1
aI779
aI672
aI2
aI460
aI25
aI14
aI7829
aI6
asg8
I550
sa(dp877
g2
(lp878
I5551
aI5552
aI5554
aI5555
aI5556
aI5557
aI5558
asg4
(lp879
I5553
asg6
(lp880
I1
aI779
aI4163
aI2
aI4642
aI22
aI14
aI665
asg8
I554
sa(dp881
g2
(lp882
I5559
asg4
(lp883
I5560
asg6
(lp884
I1488
aI122
aI7
aI4174
aI22
aI7
aI13390
aI1405
aI1860
aI25
asg8
I555
sa(dp885
g2
(lp886
I5561
aI5562
aI5563
aI5565
aI5566
asg4
(lp887
I5564
asg6
(lp888
I1488
aI7280
aI122
aI1620
aI846
aI22
aI4151
aI34
aI573
aI7
aI4417
aI13392
asg8
I556
sa(dp889
g2
(lp890
I5623
aI5624
aI5625
asg4
(lp891
I5626
asg6
(lp892
I1488
aI122
aI1902
aI1407
asg8
I563
sa(dp893
g2
(lp894
I5640
aI5641
aI5644
aI5645
aI5646
aI5647
aI5648
aI5649
aI5650
aI5651
aI5652
aI5653
aI5654
aI5655
aI5656
aI5657
aI5658
asg4
(lp895
I5642
aI5643
asg6
(lp896
I1488
aI122
aI13506
aI12639
aI1100
asg8
I566
sa(dp897
g2
(lp898
I5666
aI5667
aI5668
aI5669
aI5671
aI5672
aI5673
aI5674
aI5675
aI5676
aI5677
aI5678
aI5679
aI5680
aI5681
asg4
(lp899
I5670
asg6
(lp900
I1
aI860
aI860
aI2
aI12735
aI5333
aI477
asg8
I568
sa(dp901
g2
(lp902
I5707
aI5708
aI5710
aI5711
aI5712
aI5713
asg4
(lp903
I5709
asg6
(lp904
I1
aI779
aI13651
aI22
aI13652
asg8
I572
sa(dp905
g2
(lp906
I5714
aI5715
asg4
(lp907
I5716
asg6
(lp908
I1488
aI672
aI1640
aI13674
aI34
aI11887
aI284
aI22
aI14
aI4516
asg8
I573
sa(dp909
g2
(lp910
I5717
aI5719
aI5720
aI5721
aI5722
aI5723
asg4
(lp911
I5718
asg6
(lp912
I1
aI2
aI833
aI880
asg8
I574
sa(dp913
g2
(lp914
I5724
aI5725
aI5726
aI5729
aI5730
aI5731
aI5732
aI5733
aI5734
aI5735
aI5736
aI5737
aI5738
aI5739
aI5740
aI5741
aI5743
asg4
(lp915
I5727
aI5728
aI5742
asg6
(lp916
I1
aI779
aI2741
aI2
aI7
aI1377
aI1524
asg8
I575
sa(dp917
g2
(lp918
I5788
aI5789
aI5790
asg4
(lp919
I5787
asg6
(lp920
I1488
aI780
aI2
aI8589
aI13761
asg8
I578
sa(dp921
g2
(lp922
I5892
aI5893
aI5894
aI5895
aI5896
aI5897
aI5898
aI5899
aI5900
aI5901
aI5902
aI5903
aI5904
aI5905
aI5906
aI5907
aI5908
asg4
(lp923
I5891
asg6
(lp924
I1488
aI672
aI2
aI13943
aI3075
aI22
asg8
I587
sa(dp925
g2
(lp926
I5918
aI5919
aI5920
aI5921
asg4
(lp927
I5922
asg6
(lp928
I1488
aI993
aI9608
aI2277
asg8
I589
sa(dp929
g2
(lp930
I5930
aI5931
aI5933
aI5934
asg4
(lp931
I5932
asg6
(lp932
I1488
aI1646
aI34
aI5153
aI14026
asg8
I591
sa(dp933
g2
(lp934
I5942
aI5943
aI5946
aI5947
asg4
(lp935
I5944
aI5945
asg6
(lp936
I1488
aI993
aI14
aI137
aI1393
aI1685
asg8
I593
sa(dp937
g2
(lp938
I5979
aI5980
aI5981
aI5983
asg4
(lp939
I5982
asg6
(lp940
I1
aI779
aI743
aI125
aI128
aI14099
aI14100
aI474
aI408
asg8
I599
sa(dp941
g2
(lp942
I6007
aI6008
aI6010
asg4
(lp943
I6009
asg6
(lp944
I1
aI779
aI1403
aI22
aI14141
aI958
asg8
I601
sa(dp945
g2
(lp946
I6032
aI6033
aI6034
aI6035
aI6036
aI6037
aI6038
aI6039
aI6040
aI6042
aI6043
aI6044
aI6045
asg4
(lp947
I6041
asg6
(lp948
I1488
aI672
aI142
aI14
aI388
aI5979
aI22
aI14
aI137
asg8
I603
sa(dp949
g2
(lp950
I6054
aI6055
aI6056
aI6057
aI6058
aI6059
aI6060
aI6061
aI6062
aI6063
aI6064
aI6065
aI6066
aI6067
aI6068
aI6069
aI6070
aI6071
aI6072
asg4
(lp951
I6053
asg6
(lp952
I1488
aI672
aI2
aI14185
aI22
asg8
I605
sa(dp953
g2
(lp954
I6074
aI6075
aI6076
aI6077
aI6078
aI6079
aI6080
aI6082
aI6083
aI6084
aI6085
aI6086
aI6087
aI6088
aI6089
aI6090
aI6091
aI6092
aI6093
aI6094
aI6095
aI6096
asg4
(lp955
I6081
asg6
(lp956
I1
aI657
aI25
aI86
aI2
aI1950
aI1623
aI660
asg8
I607
sa(dp957
g2
(lp958
I6118
aI6120
aI6121
aI6122
asg4
(lp959
I6119
asg6
(lp960
I1
aI2
aI1906
aI12486
aI354
aI6
asg8
I609
sa(dp961
g2
(lp962
I6132
aI6133
aI6134
aI6135
aI6136
asg4
(lp963
I6131
asg6
(lp964
I1488
aI122
aI6957
aI11176
aI224
asg8
I611
sa(dp965
g2
(lp966
I6160
aI6161
aI6162
aI6163
aI6164
aI6165
aI6166
aI6167
aI6168
aI6169
aI6170
aI6171
aI6172
aI6173
aI6174
aI6175
aI6176
aI6177
aI6178
aI6179
asg4
(lp967
I6158
aI6159
asg6
(lp968
I1488
aI672
aI2
aI3453
aI22
asg8
I613
sa(dp969
g2
(lp970
I6193
aI6194
aI6196
aI6197
asg4
(lp971
I6195
asg6
(lp972
I1488
aI2213
aI2
aI14352
aI28
aI14353
aI480
aI22
aI6
asg8
I615
sa(dp973
g2
(lp974
I6249
aI6250
aI6251
aI6252
aI6253
aI6254
aI6256
aI6257
aI6258
aI6259
aI6260
aI6261
aI6262
aI6263
aI6264
aI6265
aI6266
aI6267
aI6268
aI6269
aI6270
aI6271
asg4
(lp975
I6255
asg6
(lp976
I1
aI779
aI876
aI142
aI14415
aI453
aI22
aI138
aI982
asg8
I622
sa(dp977
g2
(lp978
I6301
aI6302
aI6303
asg4
(lp979
I6304
asg6
(lp980
I1488
aI122
aI3448
aI667
asg8
I625
sa(dp981
g2
(lp982
I6313
aI6315
aI6316
aI6317
aI6318
aI6319
aI6320
asg4
(lp983
I6314
asg6
(lp984
I1488
aI122
aI7
aI14465
aI122
asg8
I627
sa(dp985
g2
(lp986
I6322
aI6324
aI6325
aI6326
asg4
(lp987
I6321
aI6323
asg6
(lp988
I1488
aI57
aI492
aI14475
aI876
asg8
I628
sa(dp989
g2
(lp990
I6334
aI6335
aI6336
aI6337
aI6338
aI6339
aI6340
aI6341
aI6342
aI6343
asg4
(lp991
I6333
asg6
(lp992
I1488
aI2213
aI2
aI14510
aI8882
asg8
I630
sa(dp993
g2
(lp994
I6363
aI6367
aI6368
aI6369
asg4
(lp995
I6364
aI6365
aI6366
aI6370
asg6
(lp996
I1488
aI503
aI2
aI1148
aI14555
asg8
I633
sa(dp997
g2
(lp998
I6376
aI6378
aI6379
aI6380
aI6381
aI6382
aI6383
aI6384
aI6385
asg4
(lp999
I6374
aI6375
aI6377
asg6
(lp1000
I1488
aI122
aI14
aI226
aI25
aI14
aI454
aI122
asg8
I635
sa(dp1001
g2
(lp1002
I6425
aI6426
aI6427
aI6428
aI6429
aI6430
aI6431
aI6432
aI6433
aI6434
aI6435
aI6436
aI6437
aI6438
aI6439
aI6440
aI6441
aI6442
aI6443
asg4
(lp1003
I6444
asg6
(lp1004
I1
aI779
aI1579
aI25
aI9789
aI109
aI7574
aI2
aI385
asg8
I638
sa(dp1005
g2
(lp1006
I6445
aI6446
aI6447
aI6449
aI6450
aI6451
aI6452
aI6453
aI6454
aI6455
aI6456
aI6457
aI6458
aI6459
aI6460
asg4
(lp1007
I6448
asg6
(lp1008
I1
aI2
aI14703
aI7782
aI6
asg8
I639
sa(dp1009
g2
(lp1010
I6521
aI6524
asg4
(lp1011
I6522
aI6523
asg6
(lp1012
I1488
aI1602
aI25
aI6718
aI2
aI14812
aI632
asg8
I646
sa(dp1013
g2
(lp1014
I6526
aI6527
aI6528
asg4
(lp1015
I6525
asg6
(lp1016
I1488
aI2213
aI2
aI14839
aI14840
aI22
aI6
asg8
I647
sa(dp1017
g2
(lp1018
I6565
aI6566
aI6567
aI6568
aI6569
aI6571
aI6572
aI6573
aI6574
aI6575
aI6576
aI6577
aI6578
aI6579
aI6580
aI6581
aI6582
aI6583
aI6584
aI6585
aI6586
asg4
(lp1019
I6570
asg6
(lp1020
I1
aI122
aI141
aI1646
asg8
I652
sa(dp1021
g2
(lp1022
I6592
aI6594
aI6595
aI6596
aI6597
aI6598
aI6599
aI6600
aI6601
aI6602
aI6603
aI6604
aI6605
aI6606
aI6607
aI6608
aI6609
aI6610
aI6611
aI6612
aI6613
aI6614
asg4
(lp1023
I6593
asg6
(lp1024
I1
aI779
aI672
aI142
aI1420
aI133
aI7
aI1846
aI772
asg8
I654
sa(dp1025
g2
(lp1026
I6615
aI6618
asg4
(lp1027
I6616
aI6617
asg6
(lp1028
I1488
aI672
aI2
aI22
aI14918
aI14919
asg8
I655
sa(dp1029
g2
(lp1030
I6622
aI6623
aI6624
aI6625
aI6626
aI6627
aI6629
aI6630
aI6631
aI6632
aI6633
aI6634
aI6635
aI6636
aI6637
aI6638
asg4
(lp1031
I6628
asg6
(lp1032
I1
aI779
aI11223
aI354
aI7
aI1846
aI1271
asg8
I657
sa(dp1033
g2
(lp1034
I6683
aI6685
aI6686
aI6687
aI6688
asg4
(lp1035
I6684
asg6
(lp1036
I1488
aI278
aI25
aI14
aI4516
aI2
aI6008
aI43
asg8
I662
sa(dp1037
g2
(lp1038
I6759
aI6761
aI6762
aI6763
aI6764
aI6765
aI6766
aI6767
aI6768
aI6769
aI6770
aI6771
asg4
(lp1039
I6760
asg6
(lp1040
I1488
aI993
aI14
aI1579
asg8
I668
sa(dp1041
g2
(lp1042
I6792
aI6793
aI6794
aI6795
asg4
(lp1043
I6791
asg6
(lp1044
I1488
aI122
aI15136
aI3054
aI224
asg8
I670
sa(dp1045
g2
(lp1046
I6796
aI6797
aI6798
aI6799
aI6800
asg4
(lp1047
I6801
asg6
(lp1048
I1488
aI122
aI15143
aI15144
aI944
aI224
asg8
I671
sa(dp1049
g2
(lp1050
I6802
aI6803
aI6804
aI6806
aI6807
aI6808
aI6809
aI6810
aI6811
aI6812
aI6813
aI6814
asg4
(lp1051
I6805
asg6
(lp1052
I1
aI122
aI1620
aI573
aI15151
aI1870
asg8
I672
sa(dp1053
g2
(lp1054
I6815
aI6817
aI6818
aI6819
aI6820
aI6821
aI6822
asg4
(lp1055
I6816
asg6
(lp1056
I1
aI122
aI5916
aI5715
aI335
aI299
asg8
I673
sa(dp1057
g2
(lp1058
I6823
aI6824
aI6825
aI6826
aI6827
aI6828
aI6829
aI6830
aI6831
aI6833
aI6834
aI6835
aI6836
aI6837
aI6838
aI6839
aI6840
aI6841
aI6842
aI6843
aI6844
aI6845
asg4
(lp1059
I6832
asg6
(lp1060
I1
aI8784
aI557
aI7
aI160
asg8
I674
sa(dp1061
g2
(lp1062
I6852
aI6853
aI6854
aI6855
aI6857
aI6858
aI6859
aI6860
aI6861
asg4
(lp1063
I6856
asg6
(lp1064
I1
aI779
aI5497
aI1843
aI454
asg8
I676
sa(dp1065
g2
(lp1066
I6862
aI6863
aI6864
aI6865
aI6866
aI6867
aI6868
aI6869
aI6870
asg4
(lp1067
I6871
asg6
(lp1068
I1
aI122
aI8323
aI1161
aI75
aI5096
aI34
aI2
aI14
aI191
aI160
aI6
asg8
I677
sa(dp1069
g2
(lp1070
I6903
aI6905
aI6906
aI6907
aI6908
asg4
(lp1071
I6904
asg6
(lp1072
I1
aI779
aI3096
aI22
aI14
aI665
aI233
asg8
I680
sa(dp1073
g2
(lp1074
I6909
aI6910
aI6911
aI6912
aI6913
aI6914
asg4
(lp1075
I6915
asg6
(lp1076
I1488
aI122
aI15256
aI122
asg8
I681
sa(dp1077
g2
(lp1078
I6930
aI6931
aI6933
asg4
(lp1079
I6929
aI6932
asg6
(lp1080
I1488
aI993
aI15282
aI979
asg8
I684
sa(dp1081
g2
(lp1082
I6961
aI6963
aI6964
aI6965
aI6966
aI6967
aI6968
asg4
(lp1083
I6962
asg6
(lp1084
I1488
aI1127
aI2
aI14
aI219
aI4384
aI173
aI879
aI15304
aI147
aI6882
aI13
asg8
I687
sa(dp1085
g2
(lp1086
I7026
asg4
(lp1087
I7027
asg6
(lp1088
I1488
aI528
aI364
aI2
aI15403
asg8
I694
sa(dp1089
g2
(lp1090
I7028
aI7029
aI7030
aI7031
aI7032
aI7033
aI7034
aI7035
aI7036
aI7037
aI7038
aI7040
aI7041
aI7042
asg4
(lp1091
I7039
asg6
(lp1092
I1
aI779
aI866
aI2
aI22
aI7
aI400
aI8344
aI15404
asg8
I695
sa(dp1093
g2
(lp1094
I7044
aI7045
aI7046
aI7047
aI7048
aI7049
aI7050
aI7051
aI7052
aI7053
aI7054
aI7055
aI7056
aI7057
aI7058
aI7059
aI7060
asg4
(lp1095
I7043
asg6
(lp1096
I1488
aI1602
aI25
aI13636
aI2
aI2540
asg8
I696
sa(dp1097
g2
(lp1098
I7061
aI7063
aI7064
aI7065
aI7066
aI7067
aI7068
aI7069
aI7070
aI7071
asg4
(lp1099
I7062
asg6
(lp1100
I1488
aI1602
aI25
aI2854
aI2
aI15445
aI2922
asg8
I697
sa(dp1101
g2
(lp1102
I7073
aI7074
aI7075
aI7076
aI7077
aI7078
aI7079
aI7080
aI7081
asg4
(lp1103
I7072
asg6
(lp1104
I1488
aI122
aI15468
aI787
aI22
aI7
aI10867
aI3888
aI6
asg8
I698
sa(dp1105
g2
(lp1106
sg4
(lp1107
I7082
asg6
(lp1108
I15481
aI15482
aI122
aI3383
aI15483
aI139
aI173
asg8
I699
sa(dp1109
g2
(lp1110
I7095
aI7096
aI7098
aI7099
aI7100
aI7101
aI7102
aI7103
aI7104
aI7105
aI7106
aI7107
aI7108
aI7109
aI7110
asg4
(lp1111
I7097
asg6
(lp1112
I1488
aI2
aI1720
aI1514
asg8
I702
sa(dp1113
g2
(lp1114
I7112
aI7113
asg4
(lp1115
I7111
asg6
(lp1116
I1488
aI2
aI15541
aI15542
aI15543
asg8
I703
sa(dp1117
g2
(lp1118
I7142
aI7143
aI7144
aI7145
aI7146
aI7147
aI7148
aI7149
aI7150
aI7151
aI7152
aI7153
aI7154
aI7155
aI7156
aI7157
aI7158
aI7159
aI7160
aI7161
aI7162
aI7163
aI7164
aI7165
aI7166
aI7167
aI7168
aI7170
asg4
(lp1119
I7169
asg6
(lp1120
I1488
aI354
aI14
aI2523
aI1393
aI255
aI128
aI283
asg8
I706
sa(dp1121
g2
(lp1122
I7171
aI7172
aI7173
aI7174
aI7175
asg4
(lp1123
I7176
asg6
(lp1124
I22
aI7937
aI28
aI12855
aI2
aI1001
aI9829
aI22
aI14
aI15216
aI25
aI637
aI42
aI14
aI15604
aI25
aI635
aI28
aI207
aI302
aI394
aI2
aI251
aI9829
aI113
aI14
aI15605
aI599
aI34
aI4623
aI10574
aI11542
aI354
aI115
aI4750
asg8
I707
sa(dp1125
g2
(lp1126
I7186
aI7187
aI7188
aI7190
aI7191
asg4
(lp1127
I7189
asg6
(lp1128
I1488
aI408
aI2
aI14
aI1485
aI99
aI3577
asg8
I709
sa(dp1129
g2
(lp1130
I7219
aI7220
aI7221
aI7222
aI7223
aI7224
aI7225
aI7226
aI7227
aI7228
aI7229
aI7230
aI7232
aI7233
aI7234
aI7235
aI7236
asg4
(lp1131
I7231
asg6
(lp1132
I15704
aI15705
aI15706
aI1650
aI10659
aI10660
asg8
I712
sa(dp1133
g2
(lp1134
I7237
aI7238
aI7239
aI7240
aI7242
aI7243
aI7244
asg4
(lp1135
I7241
asg6
(lp1136
I1488
aI2
aI14
aI1846
aI772
aI25
aI14181
asg8
I713
sa(dp1137
g2
(lp1138
I7265
aI7266
aI7267
asg4
(lp1139
I7268
asg6
(lp1140
I15830
aI139
aI8416
aI10
aI14
aI14907
aI876
aI28
aI8993
aI25
aI14
aI645
asg8
I717
sa(dp1141
g2
(lp1142
I7293
aI7295
aI7296
aI7297
aI7298
aI7299
asg4
(lp1143
I7294
asg6
(lp1144
I15830
aI708
aI187
aI4601
asg8
I720
sa(dp1145
g2
(lp1146
I7300
aI7301
aI7303
aI7304
asg4
(lp1147
I7302
asg6
(lp1148
I1488
aI2
aI14
aI255
aI327
aI25
aI8322
aI672
aI15958
asg8
I721
sa(dp1149
g2
(lp1150
I7306
aI7307
aI7308
aI7309
aI7310
aI7311
aI7312
aI7315
aI7316
aI7317
aI7318
aI7319
aI7320
aI7321
aI7322
aI7323
aI7324
aI7325
aI7326
aI7327
aI7328
aI7329
aI7330
aI7331
aI7332
aI7333
asg4
(lp1151
I7305
aI7313
aI7314
asg6
(lp1152
I1488
aI2
aI33
aI7422
aI6
asg8
I722
sa(dp1153
g2
(lp1154
I7334
aI7335
aI7337
asg4
(lp1155
I7336
asg6
(lp1156
I15677
aI28
aI15620
aI15678
aI15679
aI28
aI42
aI15680
aI28
aI414
aI22
aI15620
aI15681
aI1303
aI16000
asg8
I723
sa(dp1157
g2
(lp1158
I7349
aI7350
aI7351
asg4
(lp1159
I7347
aI7348
asg6
(lp1160
I1488
aI2
aI7
aI5874
aI22
aI10606
asg8
I725
sa(dp1161
g2
(lp1162
I7392
aI7393
aI7394
aI7396
aI7397
aI7398
aI7399
aI7400
aI7401
aI7402
aI7403
aI7404
aI7405
aI7406
aI7407
aI7408
aI7409
aI7410
aI7411
aI7412
asg4
(lp1163
I7395
asg6
(lp1164
I309
aI2894
aI547
aI122
aI14
aI1305
aI1393
aI923
asg8
I731
sa(dp1165
g2
(lp1166
I7414
aI7415
aI7416
aI7417
aI7418
aI7419
aI7420
aI7421
aI7422
aI7423
asg4
(lp1167
I7413
asg6
(lp1168
I1488
aI160
aI2
aI16165
aI109
aI8767
aI22
aI6
asg8
I732
sa(dp1169
g2
(lp1170
I7456
aI7457
aI7458
aI7459
aI7460
aI7461
aI7462
aI7463
aI7464
aI7465
aI7466
asg4
(lp1171
I7455
asg6
(lp1172
I1488
aI160
aI2
aI11252
aI22
aI6
asg8
I736
sa(dp1173
g2
(lp1174
I7474
aI7475
aI7476
aI7477
asg4
(lp1175
I7473
asg6
(lp1176
I1488
aI869
aI2
aI12608
aI22
aI487
aI615
aI699
aI615
asg8
I738
sa(dp1177
g2
(lp1178
I7498
aI7499
aI7500
aI7501
asg4
(lp1179
I7497
asg6
(lp1180
I1488
aI2
aI7
aI714
aI6135
asg8
I741
sa(dp1181
g2
(lp1182
sg4
(lp1183
I7502
asg6
(lp1184
I15693
aI15830
aI60
aI138
aI499
aI16058
aI42
aI6789
aI16059
aI16060
aI511
aI16061
aI16062
aI28
aI16063
aI16064
aI28
aI16065
aI16066
aI42
aI16067
aI16068
aI58
aI7304
aI11830
aI3001
aI3563
asg8
I742
sa(dp1185
g2
(lp1186
I7503
aI7504
aI7506
aI7507
aI7508
aI7509
aI7510
aI7511
aI7512
aI7513
aI7514
aI7515
aI7516
aI7517
aI7518
aI7519
aI7520
aI7521
asg4
(lp1187
I7505
asg6
(lp1188
I16253
aI16254
aI16009
aI16255
aI1540
aI6683
asg8
I743
sa(dp1189
g2
(lp1190
I7522
aI7523
aI7524
aI7525
aI7527
aI7528
aI7529
aI7530
asg4
(lp1191
I7526
asg6
(lp1192
I1488
aI2
aI14
aI16383
asg8
I744
sa(dp1193
g2
(lp1194
I7544
aI7545
aI7547
aI7548
aI7549
aI7550
asg4
(lp1195
I7546
asg6
(lp1196
I16459
aI16460
aI1093
aI7252
aI109
aI5363
aI16461
asg8
I749
sa(dp1197
g2
(lp1198
I7552
aI7553
aI7554
aI7555
aI7556
aI7557
aI7558
aI7559
aI7560
aI7561
aI7562
aI7563
aI7564
aI7565
aI7566
aI7567
aI7568
aI7569
aI7570
aI7571
aI7572
aI7573
aI7574
aI7575
aI7576
aI7577
aI7578
asg4
(lp1199
I7551
asg6
(lp1200
I113
aI16470
aI1660
aI14
aI2982
aI25
aI7937
aI42
aI2843
aI122
aI5052
aI6263
aI22
aI1088
aI1801
aI1378
asg8
I750
sa(dp1201
g2
(lp1202
I7581
aI7582
aI7583
aI7584
aI7585
aI7586
asg4
(lp1203
I7580
asg6
(lp1204
I1488
aI2
aI7
aI617
aI1282
aI167
asg8
I752
sa(dp1205
g2
(lp1206
I7594
aI7595
aI7596
aI7597
aI7598
aI7599
aI7600
aI7601
aI7602
aI7603
aI7604
aI7605
aI7606
aI7607
aI7608
aI7609
aI7610
aI7611
aI7612
aI7613
aI7614
aI7615
aI7616
aI7617
aI7618
aI7619
aI7620
aI7621
aI7622
asg4
(lp1207
I7593
asg6
(lp1208
I1488
aI327
aI25
aI6959
aI2
aI16559
aI64
aI16560
aI66
asg8
I754
sa(dp1209
g2
(lp1210
I7624
aI7625
aI7626
aI7628
aI7629
aI7630
aI7631
aI7632
aI7633
aI7634
aI7635
aI7636
aI7637
aI7638
asg4
(lp1211
I7623
aI7627
asg6
(lp1212
I779
aI25
aI14
aI476
aI160
aI128
aI14
aI16648
aI122
aI2226
aI9487
aI308
asg8
I755
sa(dp1213
g2
(lp1214
I7660
aI7661
aI7662
aI7663
aI7664
aI7665
aI7666
aI7667
aI7668
aI7669
aI7670
aI7671
asg4
(lp1215
I7659
asg6
(lp1216
I1488
aI2
aI7
aI6895
aI22
aI6883
asg8
I757
sa(dp1217
g2
(lp1218
I7673
aI7674
aI7675
aI7676
asg4
(lp1219
I7672
asg6
(lp1220
I1488
aI2
aI658
aI16746
aI16747
aI22
aI221
aI160
aI3184
asg8
I758
sa(dp1221
g2
(lp1222
I7678
aI7679
aI7680
aI7681
aI7682
aI7683
aI7684
aI7685
aI7689
aI7690
aI7691
aI7692
aI7693
aI7694
aI7695
aI7696
aI7697
aI7698
aI7700
aI7702
aI7704
asg4
(lp1223
I7677
aI7686
aI7687
aI7688
aI7699
aI7701
aI7703
asg6
(lp1224
I14
aI10897
aI10898
aI122
aI14
aI11723
aI1393
aI492
aI2568
asg8
I759
sa(dp1225
g2
(lp1226
I7725
aI7726
aI7728
aI7729
aI7730
aI7731
aI7732
aI7733
aI7734
aI7735
aI7736
aI7737
aI7738
aI7739
aI7740
aI7741
aI7742
aI7743
aI7744
aI7745
aI7746
aI7747
aI7748
asg4
(lp1227
I7727
asg6
(lp1228
I7
aI707
aI113
aI16349
aI16889
aI122
aI16890
aI354
aI14
aI16891
aI295
asg8
I764
sa(dp1229
g2
(lp1230
I7749
aI7750
aI7751
aI7752
aI7753
aI7754
aI7755
aI7757
aI7758
aI7759
aI7760
aI7761
aI7762
aI7763
aI7764
aI7765
aI7766
aI7767
aI7768
aI7769
aI7770
aI7771
aI7772
aI7773
aI7774
aI7775
asg4
(lp1231
I7756
asg6
(lp1232
I1488
aI76
aI25
aI14
aI3448
aI2
aI16934
asg8
I765
sa(dp1233
g2
(lp1234
I7778
aI7779
aI7780
aI7781
aI7782
asg4
(lp1235
I7776
aI7777
asg6
(lp1236
I1277
aI16967
aI15621
aI28
aI42
aI15620
aI42
aI16968
aI16075
aI122
aI16969
aI781
aI128
asg8
I766
sa(dp1237
g2
(lp1238
I7783
aI7784
aI7785
aI7786
aI7787
asg4
(lp1239
I7788
asg6
(lp1240
I1488
aI2741
aI25
aI2484
aI6292
aI2
aI128
aI1591
aI42
aI670
asg8
I767
sa(dp1241
g2
(lp1242
I7790
aI7791
aI7792
asg4
(lp1243
I7789
asg6
(lp1244
I1488
aI725
aI259
aI2
aI16986
aI22
aI6
asg8
I768
sa(dp1245
g2
(lp1246
I7803
aI7804
aI7805
asg4
(lp1247
I7802
asg6
(lp1248
I1488
aI2
aI14
aI1731
aI25
aI724
asg8
I770
sa(dp1249
g2
(lp1250
I7807
aI7808
aI7809
aI7810
aI7811
aI7812
aI7813
aI7814
aI7815
aI7816
aI7817
aI7818
aI7819
aI7820
aI7821
aI7822
aI7823
aI7824
aI7825
asg4
(lp1251
I7806
asg6
(lp1252
I17025
aI665
aI17026
aI9407
aI352
aI3009
asg8
I771
sa(dp1253
g2
(lp1254
I7826
aI7827
aI7829
aI7830
aI7831
aI7832
aI7833
aI7834
asg4
(lp1255
I7828
aI7835
aI7836
asg6
(lp1256
I1488
aI1602
aI25
aI1177
aI821
aI2
aI14
aI17053
asg8
I772
sa(dp1257
g2
(lp1258
I7868
aI7869
aI7870
aI7871
aI7872
aI7873
aI7874
aI7875
aI7876
aI7877
aI7878
aI7879
aI7880
asg4
(lp1259
I7867
asg6
(lp1260
I1488
aI327
aI25
aI1271
aI2
aI2243
aI2001
asg8
I776
sa(dp1261
g2
(lp1262
I7881
aI7882
aI7884
aI7885
aI7886
aI7887
asg4
(lp1263
I7883
asg6
(lp1264
I1488
aI2
aI17155
aI5742
aI6
asg8
I777
sa(dp1265
g2
(lp1266
I7889
aI7890
aI7891
aI7892
aI7894
aI7895
aI7896
aI7897
aI7898
aI7899
aI7900
aI7901
aI7902
aI7903
aI7904
aI7905
aI7906
aI7907
aI7908
aI7909
asg4
(lp1267
I7893
asg6
(lp1268
I309
aI8704
aI122
aI14
aI3462
aI499
aI941
asg8
I779
sa(dp1269
g2
(lp1270
I7911
aI7912
aI7913
aI7914
aI7915
aI7916
aI7917
aI7918
aI7919
aI7920
aI7921
aI7922
aI7923
asg4
(lp1271
I7910
asg6
(lp1272
I934
aI3522
aI3523
aI2
aI1157
asg8
I780
sa(dp1273
g2
(lp1274
I7934
aI7935
aI7937
aI7938
asg4
(lp1275
I7936
asg6
(lp1276
I15899
aI17203
aI708
aI2396
aI25
aI14
aI4289
aI17204
asg8
I783
sa(dp1277
g2
(lp1278
I7941
aI7942
aI7943
aI7944
aI7945
asg4
(lp1279
I7939
aI7940
asg6
(lp1280
I1488
aI2
aI7
aI13
aI17222
aI7304
asg8
I784
sa(dp1281
g2
(lp1282
I7978
aI7979
aI7980
aI7981
aI7982
aI7984
aI7985
asg4
(lp1283
I7983
asg6
(lp1284
I1488
aI2
aI17269
aI173
asg8
I788
sa(dp1285
g2
(lp1286
I7993
aI7994
aI7995
aI7996
aI7997
asg4
(lp1287
I7992
asg6
(lp1288
I17283
aI17284
aI12608
aI291
aI2
aI7
aI192
aI25
aI61
aI6534
asg8
I790
sa(dp1289
g2
(lp1290
I8001
aI8002
aI8004
aI8005
aI8006
aI8007
aI8008
aI8009
aI8010
aI8011
aI8012
aI8013
aI8014
asg4
(lp1291
I8003
asg6
(lp1292
I15810
aI15811
aI1650
aI8540
aI8541
aI11100
asg8
I792
sa(dp1293
g2
(lp1294
I8050
aI8051
aI8052
aI8054
aI8055
aI8056
asg4
(lp1295
I8053
asg6
(lp1296
I1488
aI408
aI122
aI3379
aI109
aI1708
aI795
aI4387
aI2469
asg8
I796
sa(dp1297
g2
(lp1298
I8062
aI8063
aI8064
aI8066
aI8067
aI8068
aI8069
asg4
(lp1299
I8065
asg6
(lp1300
I1488
aI2
aI801
aI772
aI22
aI14181
aI6
asg8
I798
sa(dp1301
g2
(lp1302
I8070
aI8072
aI8073
aI8074
aI8075
aI8076
aI8077
aI8078
aI8079
aI8080
aI8081
aI8082
aI8083
aI8084
asg4
(lp1303
I8071
asg6
(lp1304
I1488
aI1393
aI1011
aI34
aI4511
aI4512
asg8
I799
sa(dp1305
g2
(lp1306
I8132
aI8134
aI8135
aI8136
asg4
(lp1307
I8133
asg6
(lp1308
I1488
aI2
aI7
aI12573
aI1460
asg8
I804
sa(dp1309
g2
(lp1310
I8137
aI8138
aI8139
aI8140
aI8141
aI8142
aI8143
aI8144
aI8145
aI8146
aI8147
aI8149
aI8150
aI8151
aI8152
aI8153
aI8154
asg4
(lp1311
I8148
asg6
(lp1312
I7937
aI28
aI11380
aI28
aI2843
aI28
aI42
aI283
aI15416
aI22
aI14
aI137
aI2
aI17521
aI2717
asg8
I805
sa(dp1313
g2
(lp1314
I8155
aI8158
aI8159
aI8160
aI8161
asg4
(lp1315
I8156
aI8157
asg6
(lp1316
I1488
aI408
aI122
aI14
aI12118
aI781
aI404
aI60
aI14
aI869
aI291
aI17557
aI12641
aI504
aI1620
aI1702
asg8
I806
sa(dp1317
g2
(lp1318
I8163
aI8164
aI8165
aI8166
aI8167
aI8168
aI8169
aI8170
asg4
(lp1319
I8162
asg6
(lp1320
I1488
aI2
aI7
aI17562
aI94
asg8
I807
sa(dp1321
g2
(lp1322
I8185
aI8186
asg4
(lp1323
I8184
asg6
(lp1324
I17389
aI17390
aI12608
aI37
aI17593
aI68
aI2
aI556
aI34
aI781
asg8
I810
sa(dp1325
g2
(lp1326
I8211
aI8212
aI8213
aI8214
aI8215
aI8216
aI8217
aI8218
aI8219
aI8220
aI8221
aI8222
aI8223
aI8224
aI8225
asg4
(lp1327
I8210
asg6
(lp1328
I1488
aI2
aI7
aI5
aI25
aI3299
aI3666
asg8
I812
sa(dp1329
g2
(lp1330
I8226
aI8227
aI8229
aI8230
aI8231
aI8232
aI8233
aI8234
aI8235
aI8236
asg4
(lp1331
I8228
asg6
(lp1332
I16451
aI16452
aI28
aI15708
aI16453
aI16454
aI28
aI15694
aI16455
aI28
aI42
aI16456
aI16457
aI708
aI1488
aI2
aI1793
aI161
aI17652
asg8
I813
sa(dp1333
g2
(lp1334
I8238
aI8239
aI8240
aI8241
asg4
(lp1335
I8237
asg6
(lp1336
I1488
aI2
aI7
aI61
aI22
aI17669
aI6
asg8
I814
sa(dp1337
g2
(lp1338
I8284
aI8286
aI8287
aI8288
aI8289
aI8290
aI8291
aI8292
aI8293
aI8294
aI8295
aI8296
asg4
(lp1339
I8285
asg6
(lp1340
I5060
aI122
aI3493
aI3494
aI708
aI14
aI4625
aI8609
aI17711
asg8
I818
sa(dp1341
g2
(lp1342
I8342
aI8344
aI8345
aI8346
aI8347
aI8348
aI8349
aI8350
aI8351
aI8352
aI8353
aI8354
aI8355
aI8356
aI8357
asg4
(lp1343
I8343
asg6
(lp1344
I14
aI1538
aI962
aI16341
aI16342
aI22
aI14
aI222
aI639
aI133
aI7
aI1105
aI3134
aI463
aI28
aI884
aI1363
aI138
aI1237
aI28
aI2
aI2992
aI113
aI138
aI17781
aI626
aI4919
aI17782
aI28
aI132
aI113
aI17783
aI17784
aI28
aI42
aI138
aI1088
aI1165
aI1483
aI28
aI139
aI113
aI17785
aI17786
aI1093
aI496
aI1714
asg8
I825
sa(dp1345
g2
(lp1346
I8370
aI8371
aI8372
aI8374
aI8375
aI8376
aI8377
aI8378
asg4
(lp1347
I8373
asg6
(lp1348
I1488
aI160
aI142
aI11394
aI4540
asg8
I827
sa(dp1349
g2
(lp1350
I8379
asg4
(lp1351
I8380
asg6
(lp1352
I1488
aI160
aI2
aI10
aI14
aI1662
aI1661
asg8
I828
sa(dp1353
g2
(lp1354
I8382
aI8383
aI8384
aI8385
aI8386
aI8387
aI8388
aI8389
aI8390
aI8391
aI8392
aI8393
aI8394
aI8395
aI8396
aI8397
aI8398
aI8399
aI8400
aI8401
aI8402
aI8403
asg4
(lp1355
I8381
asg6
(lp1356
I1418
aI226
aI2417
aI2424
asg8
I829
sa(dp1357
g2
(lp1358
I8404
aI8406
aI8407
aI8408
aI8409
aI8410
aI8411
aI8412
aI8413
aI8414
aI8415
aI8416
aI8417
asg4
(lp1359
I8405
asg6
(lp1360
I10
aI3042
aI16128
aI2217
aI122
aI17850
aI781
aI10
aI14
aI352
asg8
I830
sa(dp1361
g2
(lp1362
I8427
aI8428
aI8429
aI8430
aI8431
aI8432
aI8433
aI8434
aI8435
aI8436
aI8437
asg4
(lp1363
I8426
asg6
(lp1364
I5674
aI122
aI13910
aI1568
asg8
I832
sa(dp1365
g2
(lp1366
I8438
aI8439
aI8440
aI8442
aI8443
aI8445
aI8446
aI8447
aI8448
aI8449
asg4
(lp1367
I8441
aI8444
asg6
(lp1368
I1488
aI2
aI6959
aI354
aI342
aI25
asg8
I833
sa(dp1369
g2
(lp1370
I8451
aI8452
aI8453
aI8454
aI8455
aI8456
aI8457
aI8458
aI8459
aI8460
aI8461
aI8462
aI8463
aI8464
aI8465
aI8466
asg4
(lp1371
I8450
asg6
(lp1372
I1488
aI2
aI7
aI1507
aI1635
aI384
aI17711
asg8
I834
sa(dp1373
g2
(lp1374
I8474
aI8476
aI8477
asg4
(lp1375
I8475
asg6
(lp1376
I1488
aI743
aI33
aI17930
aI3333
aI477
asg8
I837
sa(dp1377
g2
(lp1378
I8494
aI8496
aI8497
asg4
(lp1379
I8495
aI8498
asg6
(lp1380
I17953
aI17954
aI64
aI28
aI28
aI28
aI66
aI2
aI7
aI1502
aI4451
aI5336
aI25
aI17955
aI28
aI7
aI1174
aI10782
aI406
aI139
aI133
aI446
aI2843
asg8
I840
sa(dp1381
g2
(lp1382
I8502
aI8503
aI8504
aI8505
aI8507
aI8508
aI8509
aI8510
aI8511
aI8512
aI8513
aI8514
asg4
(lp1383
I8506
asg6
(lp1384
I16113
aI16114
aI916
aI147
aI5213
aI14
aI5535
aI25
aI6039
aI10
aI14
aI520
aI11866
asg8
I842
sa(dp1385
g2
(lp1386
I8515
aI8516
aI8517
aI8518
aI8520
aI8521
aI8522
aI8523
aI8524
aI8525
aI8526
aI8527
aI8528
aI8529
aI8530
asg4
(lp1387
I8519
asg6
(lp1388
I18000
aI18001
aI486
aI18002
asg8
I843
sa(dp1389
g2
(lp1390
I8532
aI8533
aI8534
asg4
(lp1391
I8531
asg6
(lp1392
I10688
aI122
aI18018
aI6992
aI125
asg8
I844
sa(dp1393
g2
(lp1394
I8535
aI8537
aI8538
aI8539
aI8540
aI8541
aI8542
aI8543
aI8544
aI8545
aI8546
aI8547
aI8548
aI8549
aI8550
aI8551
asg4
(lp1395
I8536
asg6
(lp1396
I1488
aI2
aI7
aI5573
aI406
aI10
aI7
aI5544
asg8
I845
sa(dp1397
g2
(lp1398
I8570
aI8571
aI8572
aI8573
aI8574
aI8575
aI8576
aI8577
aI8578
aI8579
aI8580
aI8581
aI8583
asg4
(lp1399
I8582
asg6
(lp1400
I15610
aI16443
aI16444
aI1568
aI18071
aI2310
aI179
asg8
I848
sa(dp1401
g2
(lp1402
I8584
aI8586
aI8587
aI8588
aI8589
aI8590
aI8591
aI8592
aI8593
aI8594
aI8595
aI8596
aI8597
asg4
(lp1403
I8585
asg6
(lp1404
I4880
aI16073
aI28
aI779
aI16074
aI256
aI25
aI16075
aI28
aI42
aI1215
aI6292
aI2369
aI69
aI14
aI137
aI1093
aI18084
aI18085
asg8
I849
sa(dp1405
g2
(lp1406
I8598
aI8599
aI8600
aI8601
aI8603
aI8604
asg4
(lp1407
I8602
asg6
(lp1408
I7
aI855
aI25
aI2428
aI1011
aI113
aI16722
aI16723
aI16724
aI328
aI14
aI1575
asg8
I850
sa(dp1409
g2
(lp1410
I8613
aI8614
aI8615
aI8616
aI8619
aI8620
aI8621
aI8622
aI8623
aI8625
aI8626
aI8627
aI8628
aI8629
aI8630
aI8631
aI8632
aI8633
aI8634
aI8635
aI8636
asg4
(lp1411
I8617
aI8618
aI8624
asg6
(lp1412
I1488
aI2
aI10732
aI18136
aI33
aI173
asg8
I852
sa(dp1413
g2
(lp1414
I8637
aI8638
aI8640
aI8641
aI8642
aI8643
asg4
(lp1415
I8639
asg6
(lp1416
I1488
aI2
aI7
aI2373
aI18155
asg8
I853
sa(dp1417
g2
(lp1418
I8645
aI8646
aI8647
aI8648
aI8649
aI8650
aI8651
aI8652
aI8653
aI8654
aI8655
aI8656
aI8657
aI8658
aI8659
aI8660
asg4
(lp1419
I8644
asg6
(lp1420
I17095
aI17096
aI923
aI14
aI5156
aI168
asg8
I854
sa(dp1421
g2
(lp1422
I8695
aI8697
aI8698
aI8699
aI8700
aI8701
aI8702
aI8703
aI8704
aI8705
aI8706
aI8707
asg4
(lp1423
I8696
asg6
(lp1424
I7
aI4811
aI1576
aI1355
aI486
aI22
aI16051
aI113
aI16052
aI15849
aI28
aI15694
aI16053
aI42
aI16054
aI16055
aI22
aI980
aI1568
aI14
aI963
aI6118
aI668
asg8
I857
sa(dp1425
g2
(lp1426
I8716
aI8717
aI8719
aI8720
aI8721
asg4
(lp1427
I8718
asg6
(lp1428
I1488
aI2
aI14
aI2234
aI25
aI18237
asg8
I859
sa(dp1429
g2
(lp1430
I8731
aI8733
aI8734
aI8735
aI8736
aI8737
aI8738
aI8739
aI8740
aI8741
aI8742
aI8743
aI8744
asg4
(lp1431
I8732
asg6
(lp1432
I260
aI16135
aI2420
aI122
aI8108
aI749
asg8
I861
sa(dp1433
g2
(lp1434
I8769
aI8770
aI8771
aI8772
aI8773
aI8774
aI8775
aI8776
aI8777
aI8778
aI8779
asg4
(lp1435
I8768
asg6
(lp1436
I1488
aI2
aI7
aI975
aI139
aI1271
asg8
I864
sa(dp1437
g2
(lp1438
I8781
aI8782
aI8783
aI8784
aI8785
aI8786
aI8787
aI8788
aI8789
aI8790
aI8791
aI8792
aI8793
aI8794
aI8795
aI8796
aI8797
aI8798
aI8799
aI8800
aI8801
aI8802
aI8803
aI8804
aI8805
aI8806
aI8807
aI8808
asg4
(lp1439
I8780
asg6
(lp1440
I128
aI16916
aI28
aI16164
aI1485
aI28
aI34
aI1747
aI16917
aI28
aI16164
aI915
aI28
aI2627
aI122
aI14
aI2523
aI1393
aI923
aI42
aI674
asg8
I865
sa(dp1441
g2
(lp1442
I8810
aI8811
aI8812
aI8813
asg4
(lp1443
I8809
asg6
(lp1444
I1488
aI2
aI14
aI4958
aI543
aI22
aI14
aI137
asg8
I866
sa(dp1445
g2
(lp1446
I8855
aI8856
aI8857
aI8858
aI8859
aI8860
aI8861
asg4
(lp1447
I8862
asg6
(lp1448
I14
aI481
aI1661
aI25
aI17523
aI28
aI17524
aI14
aI4487
aI142
aI390
aI161
aI130
aI2271
asg8
I869
sa(dp1449
g2
(lp1450
I8893
asg4
(lp1451
I8892
asg6
(lp1452
I18405
aI15487
aI122
aI14
aI18406
aI496
asg8
I874
sa(dp1453
g2
(lp1454
I8894
aI8896
aI8897
aI8898
aI8899
aI8900
aI8901
asg4
(lp1455
I8895
asg6
(lp1456
I1488
aI2
aI7
aI3943
aI22
aI3942
asg8
I875
sa(dp1457
g2
(lp1458
I8903
aI8904
aI8905
aI8906
aI8907
aI8908
aI8909
aI8910
asg4
(lp1459
I8902
asg6
(lp1460
I17283
aI17284
aI7959
aI133
aI7
aI1684
aI7372
aI22
aI58
asg8
I876
sa(dp1461
g2
(lp1462
I8911
aI8913
aI8914
asg4
(lp1463
I8912
asg6
(lp1464
I18423
aI28
aI18424
aI122
aI3887
aI3508
aI139
aI4919
aI6883
aI6
asg8
I877
sa(dp1465
g2
(lp1466
I8916
aI8917
aI8918
aI8919
aI8920
aI8922
aI8923
aI8924
aI8925
aI8926
aI8927
aI8928
aI8929
aI8930
asg4
(lp1467
I8915
aI8921
asg6
(lp1468
I1488
aI772
aI2
aI2565
aI22
aI2736
aI1663
asg8
I878
sa(dp1469
g2
(lp1470
I8953
aI8954
aI8955
aI8956
aI8958
aI8959
aI8960
asg4
(lp1471
I8957
asg6
(lp1472
I15711
aI15805
aI16046
aI1396
aI5387
aI1067
aI665
aI6
asg8
I882
sa(dp1473
g2
(lp1474
I8982
aI8983
aI8984
aI8985
asg4
(lp1475
I8986
aI8987
asg6
(lp1476
I1488
aI2
aI18529
aI4518
aI354
aI25
asg8
I886
sa(dp1477
g2
(lp1478
I8988
aI8989
aI8990
aI8992
aI8993
aI8994
aI8995
aI8996
aI8997
aI8998
aI8999
aI9000
aI9001
aI9002
aI9003
aI9004
aI9005
aI9006
asg4
(lp1479
I8991
asg6
(lp1480
I16451
aI16452
aI28
aI15708
aI16453
aI16454
aI28
aI15694
aI16455
aI28
aI42
aI16456
aI16457
aI1670
aI201
aI7
aI805
aI2
aI704
aI7
aI4441
aI1065
aI203
aI6
asg8
I887
sa(dp1481
g2
(lp1482
I9036
aI9037
asg4
(lp1483
I9038
asg6
(lp1484
I7
aI398
aI1276
aI22
aI14
aI1970
aI25
aI14
aI4456
aI2467
aI25
aI15786
aI22
aI1371
aI28
aI133
aI467
aI133
aI14
aI743
aI109
aI15787
aI25
aI15786
aI64
aI15788
aI66
aI42
aI14
aI15789
aI15790
aI64
aI15791
aI54
aI15792
aI66
aI953
aI14
aI15786
aI15793
aI880
aI9357
aI34
aI14
aI1271
aI6
asg8
I890
sa(dp1485
g2
(lp1486
I9098
aI9099
asg4
(lp1487
I9097
asg6
(lp1488
I14
aI18658
aI122
aI18659
aI3328
asg8
I898
sa(dp1489
g2
(lp1490
I9116
aI9117
aI9118
aI9119
aI9120
aI9121
aI9122
aI9123
aI9124
aI9126
aI9127
aI9128
aI9129
aI9130
aI9131
asg4
(lp1491
I9125
asg6
(lp1492
I1488
aI1843
aI1568
aI6118
aI668
asg8
I900
sa(dp1493
g2
(lp1494
I9166
asg4
(lp1495
I9165
asg6
(lp1496
I17838
aI708
aI18746
aI14
aI6189
aI1268
asg8
I904
sa(dp1497
g2
(lp1498
I9180
aI9181
aI9182
aI9183
aI9184
aI9185
aI9186
aI9187
aI9188
aI9189
aI9190
aI9191
aI9193
asg4
(lp1499
I9192
asg6
(lp1500
I11415
aI271
aI34
aI8676
aI37
aI2
aI1658
aI1277
aI28
aI17172
aI28
aI1037
aI7
aI855
aI54
aI477
aI261
aI133
aI7
aI73
aI28
aI3331
aI28
aI352
aI54
aI1813
aI133
aI7
aI366
aI122
aI8113
aI557
aI1386
asg8
I907
sa(dp1501
g2
(lp1502
I9194
aI9196
aI9197
aI9198
aI9199
aI9200
aI9201
aI9202
aI9203
aI9204
aI9205
aI9206
aI9207
asg4
(lp1503
I9195
asg6
(lp1504
I1488
aI2
aI7
aI18772
aI3650
aI60
aI7
aI7190
asg8
I908
sa(dp1505
g2
(lp1506
I9227
aI9228
asg4
(lp1507
I9226
asg6
(lp1508
I1488
aI2
aI7
aI18811
aI1585
asg8
I912
sa(dp1509
g2
(lp1510
I9251
aI9252
aI9254
aI9255
aI9256
aI9257
aI9258
aI9259
asg4
(lp1511
I9253
asg6
(lp1512
I7
aI9170
aI3571
aI3563
aI14
aI7737
aI1594
aI6135
asg8
I916
sa(dp1513
g2
(lp1514
sg4
(lp1515
I9260
asg6
(lp1516
I57
aI2
aI480
aI22
aI14
aI528
aI2735
aI25
aI16844
aI42
aI481
aI42
aI5599
aI25
aI16845
aI16846
aI16847
aI28
aI16848
aI42
aI17
aI481
aI25
aI16796
aI16846
aI16847
aI122
aI14
aI3885
aI201
aI18837
aI10
aI432
aI203
aI781
aI128
asg8
I917
sa(dp1517
g2
(lp1518
I9261
aI9263
aI9264
aI9265
aI9266
aI9267
aI9268
aI9269
aI9270
aI9271
aI9272
aI9273
aI9274
aI9275
aI9276
aI9277
asg4
(lp1519
I9262
asg6
(lp1520
I1488
aI2
aI2397
aI1810
aI6
asg8
I918
sa(dp1521
g2
(lp1522
I9280
asg4
(lp1523
I9278
aI9279
asg6
(lp1524
I16709
aI16710
aI16711
aI16712
aI12608
aI14
aI645
aI14
aI655
aI556
aI404
asg8
I919
sa(dp1525
g2
(lp1526
I9281
aI9282
aI9283
aI9286
aI9287
aI9288
aI9289
aI9290
aI9291
aI9292
aI9293
asg4
(lp1527
I9284
aI9285
asg6
(lp1528
I16508
aI16493
aI28
aI22
aI14
aI16509
aI160
aI25
aI16510
aI42
aI16511
aI122
aI14
aI1415
aI4314
aI556
aI10
aI6668
asg8
I920
sa(dp1529
g2
(lp1530
I9295
aI9296
aI9297
aI9298
aI9299
aI9300
aI9301
aI9302
aI9303
aI9304
asg4
(lp1531
I9294
asg6
(lp1532
I1488
aI2
aI7
aI14645
aI10520
asg8
I921
sa(dp1533
g2
(lp1534
I9307
aI9309
aI9310
aI9311
aI9312
aI9313
aI9314
asg4
(lp1535
I9308
asg6
(lp1536
I1488
aI2
aI18913
aI173
aI6
asg8
I923
sa(dp1537
g2
(lp1538
I9335
aI9336
aI9337
aI9338
aI9339
aI9340
aI9341
aI9342
aI9343
aI9344
aI9345
aI9346
aI9347
aI9348
aI9349
aI9350
aI9351
aI9352
aI9353
aI9354
aI9355
aI9356
aI9357
aI9358
aI9359
aI9360
aI9361
aI9362
asg4
(lp1539
I9334
asg6
(lp1540
I1488
aI160
aI2
aI14
aI2523
aI1393
aI22
asg8
I926
sa(dp1541
g2
(lp1542
I9363
aI9364
aI9365
aI9366
aI9367
aI9368
aI9369
aI9370
aI9371
aI9372
aI9373
aI9375
aI9377
aI9378
aI9379
asg4
(lp1543
I9374
aI9376
asg6
(lp1544
I3300
aI25
aI16489
aI122
aI14
aI1747
aI2289
aI945
aI6
asg8
I927
sa(dp1545
g2
(lp1546
I9400
aI9401
aI9402
aI9403
aI9404
aI9405
aI9406
aI9407
aI9408
aI9409
aI9410
aI9411
aI9412
aI9413
asg4
(lp1547
I9399
asg6
(lp1548
I1488
aI408
aI2
aI1590
aI1393
asg8
I930
sa(dp1549
g2
(lp1550
I9414
aI9415
aI9416
aI9417
aI9418
aI9419
aI9420
aI9422
aI9423
aI9424
asg4
(lp1551
I9421
asg6
(lp1552
I1488
aI280
aI226
aI109
aI1495
aI142
aI2
aI373
aI10
aI14
aI4394
aI64
aI19017
aI1848
aI66
aI108
aI4503
aI6
asg8
I931
sa(dp1553
g2
(lp1554
I9434
aI9435
aI9436
aI9438
aI9439
aI9440
aI9441
aI9442
asg4
(lp1555
I9437
asg6
(lp1556
I15825
aI174
aI28
aI950
aI22
aI16488
aI16481
aI28
aI16540
aI2420
aI28
aI3360
aI22
aI15529
aI28
aI42
aI16143
aI700
aI28
aI3360
aI22
aI17553
aI42
aI16679
aI122
aI19038
aI191
aI1770
asg8
I933
sa(dp1557
g2
(lp1558
I9456
aI9457
aI9458
aI9459
aI9461
aI9462
aI9463
aI9464
aI9465
aI9466
asg4
(lp1559
I9460
asg6
(lp1560
I119
aI34
aI30
aI3563
aI28
aI471
aI17458
aI1872
aI25
aI169
aI17459
aI5126
aI22
aI17460
aI64
aI16099
aI473
aI66
aI28
aI42
aI17461
aI1872
aI22
aI14
aI15490
aI15491
aI64
aI4241
aI473
aI66
aI28
aI60
aI388
aI25
aI14
aI6155
aI2367
aI22
aI16679
aI64
aI14829
aI473
aI66
aI42
aI16487
aI64
aI7472
aI473
aI66
aI122
aI11700
aI15973
aI496
aI22
aI19067
aI6
asg8
I937
sa(dp1561
g2
(lp1562
I9467
aI9469
aI9470
aI9471
aI9472
asg4
(lp1563
I9468
asg6
(lp1564
I1488
aI2
aI7
aI19086
aI10314
asg8
I938
sa(dp1565
g2
(lp1566
I9475
aI9476
aI9477
aI9478
aI9479
aI9480
aI9481
aI9482
aI9483
aI9484
aI9485
aI9486
asg4
(lp1567
I9473
aI9474
asg6
(lp1568
I1488
aI2
aI19099
aI244
aI19100
asg8
I939
sa(dp1569
g2
(lp1570
I9487
aI9489
aI9490
aI9491
aI9492
aI9493
aI9494
aI9495
aI9496
aI9497
aI9498
aI9499
aI9500
asg4
(lp1571
I9488
asg6
(lp1572
I15490
aI15491
aI824
aI2167
aI17613
aI3577
aI14
aI5043
asg8
I940
sa(dp1573
g2
(lp1574
sg4
(lp1575
I9504
asg6
(lp1576
I1488
aI1602
aI25
aI7914
aI2
aI201
aI30
aI2
aI1204
aI34
aI1670
aI203
asg8
I942
sa(dp1577
g2
(lp1578
I9505
aI9506
aI9507
aI9510
asg4
(lp1579
I9508
aI9509
asg6
(lp1580
I7
aI870
aI7850
aI6850
aI28
aI970
aI515
aI173
aI138
aI729
aI10
aI14
aI15875
aI9852
aI2703
aI515
aI133
aI14
aI15876
aI139
aI19146
aI22
aI702
aI703
asg8
I943
sa(dp1581
g2
(lp1582
I9512
aI9513
aI9514
aI9515
asg4
(lp1583
I9511
asg6
(lp1584
I1488
aI880
aI19154
asg8
I944
sa(dp1585
g2
(lp1586
I9520
aI9521
aI9522
aI9523
aI9524
aI9525
aI9526
aI9527
aI9528
aI9530
aI9531
aI9532
aI9533
aI9534
aI9535
asg4
(lp1587
I9529
asg6
(lp1588
I15711
aI15805
aI16046
aI864
aI14
aI191
aI1487
aI1567
aI87
aI18527
aI9025
aI6
asg8
I946
sa(dp1589
g2
(lp1590
I9537
aI9538
asg4
(lp1591
I9536
asg6
(lp1592
I17623
aI17624
aI354
aI19179
aI15676
asg8
I947
sa(dp1593
g2
(lp1594
I9539
aI9542
aI9543
asg4
(lp1595
I9540
aI9541
asg6
(lp1596
I16049
aI16466
aI122
aI2416
aI2417
aI271
aI34
aI133
aI14
aI3569
aI2577
asg8
I948
sa(dp1597
g2
(lp1598
I9544
aI9545
aI9546
aI9547
aI9548
aI9550
aI9551
aI9552
aI9553
aI9554
asg4
(lp1599
I9549
asg6
(lp1600
I1488
aI408
aI122
aI14
aI773
aI19188
aI556
aI770
aI824
asg8
I949
sa(dp1601
g2
(lp1602
I9586
aI9588
aI9589
aI9590
aI9591
aI9592
aI9593
aI9594
asg4
(lp1603
I9587
asg6
(lp1604
I1488
aI2
aI19249
aI354
aI128
asg8
I954
sa(dp1605
g2
(lp1606
I9601
aI9602
aI9603
aI9605
aI9606
aI9607
aI9608
aI9609
aI9610
aI9611
aI9612
asg4
(lp1607
I9604
asg6
(lp1608
I14
aI6315
aI25
aI4327
aI122
aI8454
aI8455
aI191
aI781
aI404
asg8
I956
sa(dp1609
g2
(lp1610
I9614
aI9615
aI9616
aI9617
aI9618
aI9619
aI9620
aI9621
aI9622
aI9623
aI9624
aI9625
aI9626
asg4
(lp1611
I9613
asg6
(lp1612
I1488
aI639
aI122
aI19283
aI139
aI22
aI14
aI19284
aI279
aI6
asg8
I957
sa(dp1613
g2
(lp1614
I9627
aI9628
aI9629
aI9631
aI9632
aI9633
aI9634
aI9635
aI9636
aI9637
aI9638
aI9639
aI9640
aI9641
aI9642
aI9643
aI9644
aI9645
aI9646
asg4
(lp1615
I9630
asg6
(lp1616
I1488
aI160
aI2
aI1088
aI3070
aI22
asg8
I958
sa(dp1617
g2
(lp1618
I9690
aI9691
aI9693
aI9694
aI9695
aI9696
aI9697
aI9698
aI9699
aI9700
aI9701
aI9702
aI9703
aI9704
asg4
(lp1619
I9692
asg6
(lp1620
I16435
aI16436
aI139
aI15309
aI22
aI734
aI3403
asg8
I963
sa(dp1621
g2
(lp1622
I9788
aI9789
aI9791
aI9792
aI9793
aI9794
aI9795
aI9796
aI9797
aI9798
aI9799
aI9800
aI9801
asg4
(lp1623
I9790
asg6
(lp1624
I14
aI388
aI653
aI13058
aI25
aI14
aI9195
aI5160
aI25
aI16100
aI4150
aI8540
aI8541
asg8
I971
sa(dp1625
g2
(lp1626
I9807
aI9808
aI9809
asg4
(lp1627
I9806
asg6
(lp1628
I1488
aI2
aI14
aI1574
aI19482
asg8
I973
sa(dp1629
g2
(lp1630
I9866
aI9867
aI9868
aI9869
aI9870
aI9871
aI9872
aI9873
aI9874
aI9875
aI9876
aI9877
aI9878
aI9879
aI9880
aI9881
aI9882
aI9883
aI9884
aI9885
asg4
(lp1631
I9865
asg6
(lp1632
I1488
aI408
aI122
aI879
aI15304
aI147
aI125
asg8
I979
sa(dp1633
g2
(lp1634
I9914
aI9915
aI9916
aI9917
aI9918
aI9919
aI9920
aI9921
aI9922
aI9923
aI9924
aI9925
aI9926
aI9927
aI9928
aI9929
aI9930
aI9931
aI9932
aI9933
asg4
(lp1635
I9934
asg6
(lp1636
I1488
aI34
aI354
aI60
aI19575
asg8
I982
sa(dp1637
g2
(lp1638
I9935
aI9936
aI9937
aI9938
aI9939
aI9940
aI9941
aI9943
aI9944
asg4
(lp1639
I9942
asg6
(lp1640
I1488
aI3702
aI12993
aI672
aI142
aI14
aI388
aI137
aI3982
aI222
asg8
I983
sa(dp1641
g2
(lp1642
I9948
aI9950
aI9951
aI9952
aI9953
aI9954
asg4
(lp1643
I9949
asg6
(lp1644
I17660
aI17661
aI3785
aI14
aI4090
aI1386
aI13002
asg8
I985
sa(dp1645
g2
(lp1646
I9963
asg4
(lp1647
I9962
asg6
(lp1648
I1488
aI2736
aI4156
aI2213
aI2
aI19629
aI22
asg8
I987
sa(dp1649
g2
(lp1650
I9989
aI9990
asg4
(lp1651
I9987
aI9988
asg6
(lp1652
I1488
aI2
aI870
aI743
aI25
aI3316
aI3524
aI27
asg8
I990
sa(dp1653
g2
(lp1654
I10000
aI10001
aI10002
asg4
(lp1655
I9999
asg6
(lp1656
I18328
aI122
aI5539
aI923
asg8
I992
sa(dp1657
g2
(lp1658
I10031
aI10032
aI10034
aI10035
aI10036
aI10037
asg4
(lp1659
I10033
asg6
(lp1660
I1488
aI2
aI7
aI5684
aI7298
aI22
aI7
aI2108
aI6
asg8
I998
sa(dp1661
g2
(lp1662
I10038
aI10039
aI10041
aI10042
aI10043
aI10044
aI10045
aI10046
aI10047
aI10048
asg4
(lp1663
I10040
asg6
(lp1664
I17546
aI15487
aI122
aI19739
aI781
aI128
asg8
I999
sa(dp1665
g2
(lp1666
I10054
aI10056
aI10057
aI10058
aI10059
aI10060
aI10061
aI10062
aI10063
aI10064
aI10065
aI10066
asg4
(lp1667
I10055
asg6
(lp1668
I14
aI15722
aI15723
aI15724
aI13
aI406
aI3577
aI8360
aI975
asg8
I1001
sa(dp1669
g2
(lp1670
I10069
aI10070
aI10071
aI10072
aI10073
aI10074
asg4
(lp1671
I10067
aI10068
asg6
(lp1672
I1488
aI19777
aI81
aI22
aI2702
aI42
aI10862
asg8
I1002
sa(dp1673
g2
(lp1674
I10075
aI10076
aI10078
aI10080
aI10081
aI10082
aI10083
aI10084
aI10085
asg4
(lp1675
I10077
aI10079
asg6
(lp1676
I1488
aI2
aI7
aI13489
aI9931
asg8
I1003
sa(dp1677
g2
(lp1678
I10102
aI10103
asg4
(lp1679
I10101
asg6
(lp1680
I7
aI870
aI7850
aI6850
aI28
aI970
aI515
aI173
aI138
aI729
aI10
aI14
aI15875
aI9852
aI2703
aI515
aI133
aI14
aI15876
aI28
aI42
aI930
aI173
aI138
aI299
aI10
aI14
aI15877
aI15878
aI15879
aI708
aI14
aI869
aI22
aI14
aI15397
asg8
I1006
sa(dp1681
g2
(lp1682
I10134
aI10135
aI10136
aI10137
aI10138
aI10139
aI10140
aI10141
aI10142
aI10143
aI10144
aI10145
aI10146
aI10147
asg4
(lp1683
I10133
asg6
(lp1684
I1488
aI2
aI201
aI4665
aI130
aI203
aI501
asg8
I1011
sa(dp1685
g2
(lp1686
I10166
aI10167
aI10169
aI10170
aI10171
aI10172
asg4
(lp1687
I10168
asg6
(lp1688
I1488
aI4414
aI2
aI2224
asg8
I1014
sa(dp1689
g2
(lp1690
I10179
aI10180
aI10182
aI10183
aI10184
aI10185
aI10186
aI10187
aI10188
asg4
(lp1691
I10181
asg6
(lp1692
I751
aI16128
aI1371
aI122
aI1543
aI1836
aI10157
asg8
I1017
sa(dp1693
g2
(lp1694
I10198
aI10200
aI10201
aI10202
aI10203
aI10204
aI10205
aI10206
aI10207
aI10208
aI10209
aI10210
aI10211
aI10212
asg4
(lp1695
I10197
aI10199
asg6
(lp1696
I1488
aI2
aI239
aI1215
aI6770
asg8
I1020
sa(dp1697
g2
(lp1698
I10234
aI10235
aI10236
asg4
(lp1699
I10233
asg6
(lp1700
I17953
aI17954
aI64
aI28
aI28
aI28
aI66
aI2
aI7
aI1502
aI4451
aI5336
aI25
aI17955
aI28
aI7
aI1174
aI10782
aI406
aI12608
aI14
aI16307
aI16308
aI869
asg8
I1024
sa(dp1701
g2
(lp1702
I10238
aI10239
aI10240
aI10241
aI10242
aI10243
aI10244
aI10245
aI10246
aI10247
aI10248
aI10249
aI10250
aI10251
aI10252
aI10253
aI10254
aI10255
aI10256
aI10257
aI10258
aI10259
aI10260
aI10261
aI10262
aI10263
asg4
(lp1703
I10237
asg6
(lp1704
I1418
aI122
aI11101
aI308
asg8
I1025
sa(dp1705
g2
(lp1706
I10268
aI10269
asg4
(lp1707
I10267
asg6
(lp1708
I1488
aI408
aI122
aI407
aI342
aI60
aI14
aI9641
aI308
asg8
I1027
sa(dp1709
g2
(lp1710
I10270
aI10271
aI10272
aI10273
aI10274
aI10275
aI10276
aI10277
aI10278
aI10280
aI10281
aI10282
aI10283
aI10284
aI10285
aI10286
asg4
(lp1711
I10279
asg6
(lp1712
I1488
aI801
aI3704
aI171
aI34
aI1396
aI5106
asg8
I1028
sa(dp1713
g2
(lp1714
I10287
aI10289
aI10290
aI10291
aI10292
aI10293
aI10294
aI10295
aI10296
aI10297
aI10298
aI10299
aI10300
aI10301
aI10302
aI10303
aI10304
aI10305
aI10306
aI10307
aI10308
aI10309
aI10310
aI10311
aI10312
aI10313
aI10314
aI10315
asg4
(lp1715
I10288
asg6
(lp1716
I1488
aI1336
aI14
aI2523
aI1393
asg8
I1029
sa(dp1717
g2
(lp1718
I10321
aI10324
aI10325
aI10326
aI10327
asg4
(lp1719
I10322
aI10323
asg6
(lp1720
I1488
aI2
aI7
aI839
aI20057
asg8
I1031
sa(dp1721
g2
(lp1722
I10339
aI10340
aI10341
aI10343
aI10344
aI10345
aI10346
aI10347
aI10348
aI10349
asg4
(lp1723
I10342
asg6
(lp1724
I1488
aI2
aI15676
aI354
aI25
asg8
I1033
sa(dp1725
g2
(lp1726
I10350
aI10351
aI10352
aI10353
aI10355
asg4
(lp1727
I10354
asg6
(lp1728
I15805
aI15831
aI15832
aI1650
aI417
aI3488
aI22
aI17422
aI2408
asg8
I1034
sa(dp1729
g2
(lp1730
I10377
aI10378
asg4
(lp1731
I10376
asg6
(lp1732
I16491
aI122
aI647
aI20117
aI4425
aI781
aI128
asg8
I1036
sa(dp1733
g2
(lp1734
I10379
aI10380
aI10382
aI10383
aI10384
aI10385
aI10386
aI10387
asg4
(lp1735
I10381
asg6
(lp1736
I18010
aI16240
aI18011
aI1568
aI14
aI647
aI109
aI137
aI3982
asg8
I1037
sa(dp1737
g2
(lp1738
I10422
aI10423
aI10424
aI10425
aI10426
asg4
(lp1739
I10421
asg6
(lp1740
I16209
aI16210
aI42
aI15895
aI16211
aI1093
aI20166
asg8
I1044
sa(dp1741
g2
(lp1742
I10432
aI10433
aI10434
aI10435
asg4
(lp1743
I10431
asg6
(lp1744
I16341
aI16342
aI708
aI20180
aI14376
asg8
I1046
sa(dp1745
g2
(lp1746
I10439
asg4
(lp1747
I10436
aI10437
aI10438
asg6
(lp1748
I1488
aI2
aI14
aI7199
aI42
aI7210
aI25
aI14
aI191
aI3078
aI245
aI471
asg8
I1047
sa(dp1749
g2
(lp1750
I10452
aI10453
asg4
(lp1751
I10451
asg6
(lp1752
I1488
aI2
aI7
aI2338
aI6747
aI22
aI4151
asg8
I1050
sa(dp1753
g2
(lp1754
I10459
aI10460
aI10461
aI10462
aI10463
aI10465
aI10466
aI10467
aI10468
aI10469
aI10470
asg4
(lp1755
I10464
asg6
(lp1756
I1488
aI76
aI25
aI3443
aI2
aI20207
aI6718
aI128
aI6
asg8
I1052
sa(dp1757
g2
(lp1758
I10471
aI10473
aI10474
aI10475
aI10476
aI10477
aI10478
aI10479
aI10480
aI10481
asg4
(lp1759
I10472
asg6
(lp1760
I2808
aI122
aI6203
aI6202
aI420
asg8
I1053
sa(dp1761
g2
(lp1762
I10501
aI10502
aI10503
aI10504
aI10505
aI10506
aI10507
aI10508
aI10509
aI10510
aI10511
asg4
(lp1763
I10500
asg6
(lp1764
I1488
aI2
aI7
aI20224
aI202
asg8
I1055
sa(dp1765
g2
(lp1766
I10514
aI10515
aI10516
aI10518
aI10519
aI10520
aI10521
asg4
(lp1767
I10517
asg6
(lp1768
I16120
aI139
aI17145
aI22
aI1793
aI20249
aI109
aI7
aI20250
asg8
I1057
sa(dp1769
g2
(lp1770
I10583
aI10584
aI10585
aI10586
aI10587
aI10588
aI10589
aI10590
aI10591
aI10592
aI10593
aI10594
aI10595
aI10596
asg4
(lp1771
I10582
asg6
(lp1772
I1488
aI2
aI7
aI1805
aI6816
aI459
asg8
I1065
sa(dp1773
g2
(lp1774
I10612
aI10613
aI10614
aI10615
aI10616
asg4
(lp1775
I10611
asg6
(lp1776
I1488
aI160
aI2
aI528
aI364
aI20327
asg8
I1068
sa(dp1777
g2
(lp1778
I10623
aI10624
aI10625
aI10626
aI10627
aI10628
aI10629
aI10630
aI10631
aI10632
aI10633
aI10634
aI10635
aI10636
aI10637
aI10638
asg4
(lp1779
I10622
asg6
(lp1780
I1488
aI2
aI5074
aI3192
asg8
I1070
sa(dp1781
g2
(lp1782
I10657
aI10658
aI10659
aI10661
aI10662
aI10663
aI10664
asg4
(lp1783
I10660
asg6
(lp1784
I1488
aI2
aI2196
aI4498
aI7422
asg8
I1073
sa(dp1785
g2
(lp1786
I10670
asg4
(lp1787
I10669
asg6
(lp1788
I1488
aI1818
aI2
aI20402
aI3737
aI13484
aI22
asg8
I1075
sa(dp1789
g2
(lp1790
I10672
aI10673
aI10674
aI10675
aI10676
aI10677
aI10678
aI10679
aI10680
aI10681
aI10682
aI10683
aI10684
aI10685
aI10686
aI10687
aI10688
aI10689
aI10690
asg4
(lp1791
I10671
asg6
(lp1792
I17160
aI5712
aI10
aI17161
aI17162
aI122
aI2928
aI18121
aI945
asg8
I1076
sa(dp1793
g2
(lp1794
I10691
aI10693
aI10694
aI10695
aI10696
aI10697
asg4
(lp1795
I10692
asg6
(lp1796
I309
aI2354
aI122
aI14
aI2523
aI3083
aI49
aI308
asg8
I1077
sa(dp1797
g2
(lp1798
I10698
aI10699
aI10700
aI10701
aI10702
aI10703
aI10704
aI10706
aI10707
aI10708
asg4
(lp1799
I10705
asg6
(lp1800
I8083
aI456
aI16110
aI16374
aI201
aI16375
aI203
aI16376
aI64
aI15825
aI1651
aI28
aI4219
aI215
aI16128
aI1211
aI28
aI2437
aI66
aI2
aI7
aI15490
aI15491
aI16124
aI42
aI153
aI25
aI154
aI6021
aI192
aI64
aI81
aI562
aI16125
aI66
aI34
aI142
aI900
aI14
aI1822
aI25
aI1819
aI1573
aI1568
aI3952
aI137
aI3982
aI940
asg8
I1078
sa(dp1801
g2
(lp1802
I10709
asg4
(lp1803
I10710
asg6
(lp1804
I699
aI16540
aI3907
aI215
aI1545
aI16152
aI2548
aI122
aI8360
aI20454
aI573
aI3577
asg8
I1079
sa(dp1805
g2
(lp1806
I10711
aI10713
aI10714
aI10715
aI10716
aI10717
asg4
(lp1807
I10712
asg6
(lp1808
I14
aI15802
aI5260
aI870
aI6267
aI3611
aI498
aI12120
aI6
asg8
I1080
sa(dp1809
g2
(lp1810
I10719
aI10720
aI10721
aI10722
aI10723
aI10724
aI10725
aI10726
aI10727
aI10728
asg4
(lp1811
I10718
asg6
(lp1812
I1488
aI160
aI2
aI1088
aI9480
aI22
asg8
I1081
sa(dp1813
g2
(lp1814
I10729
aI10730
aI10731
aI10732
aI10733
aI10735
aI10736
aI10737
aI10738
aI10739
asg4
(lp1815
I10734
asg6
(lp1816
I1488
aI674
aI14
aI388
aI1342
aI2884
aI37
aI1011
aI34
aI14
aI2604
aI25
aI14
aI20485
aI22
aI2461
aI6
asg8
I1082
sa(dp1817
g2
(lp1818
I10742
aI10743
aI10744
aI10745
aI10746
aI10747
aI10748
aI10749
aI10750
aI10752
aI10753
asg4
(lp1819
I10751
asg6
(lp1820
I260
aI774
aI408
aI122
aI1425
aI1426
aI1650
aI1482
asg8
I1084
sa(dp1821
g2
(lp1822
I10755
aI10756
aI10757
aI10758
aI10759
asg4
(lp1823
I10754
asg6
(lp1824
I1488
aI2
aI7
aI20501
aI1652
asg8
I1085
sa(dp1825
g2
(lp1826
I10790
aI10791
aI10792
aI10793
aI10794
aI10795
aI10796
aI10797
aI10798
asg4
(lp1827
I10789
asg6
(lp1828
I1488
aI14
aI161
aI25
aI6312
aI109
aI1247
asg8
I1090
sa(dp1829
g2
(lp1830
I10825
aI10826
aI10828
aI10829
asg4
(lp1831
I10827
asg6
(lp1832
I7
aI8097
aI5031
aI28
aI138
aI2
aI14
aI15834
aI15835
aI25
aI14
aI15836
aI25
aI15837
aI15838
aI28
aI7
aI2197
aI3931
aI25
aI4654
aI477
aI2456
aI1393
aI10
aI14
aI15839
aI15840
aI1540
aI14
aI20582
aI49
aI6
asg8
I1094
sa(dp1833
g2
(lp1834
I10831
aI10832
aI10833
aI10834
aI10835
aI10836
aI10837
asg4
(lp1835
I10830
asg6
(lp1836
I1488
aI2
aI7
aI13
aI20593
aI7304
asg8
I1095
sa(dp1837
g2
(lp1838
I10839
aI10840
aI10841
aI10842
aI10843
aI10844
asg4
(lp1839
I10838
asg6
(lp1840
I1488
aI2
aI7
aI774
aI20606
asg8
I1096
sa(dp1841
g2
(lp1842
I10845
aI10847
aI10848
aI10849
aI10850
aI10851
aI10852
aI10853
asg4
(lp1843
I10846
asg6
(lp1844
I1488
aI2
aI7
aI20614
aI10
aI7
aI8416
asg8
I1097
sa(dp1845
g2
(lp1846
I10943
aI10944
aI10945
aI10946
aI10947
aI10948
aI10949
aI10950
aI10951
aI10952
aI10953
aI10954
aI10955
aI10956
asg4
(lp1847
I10941
aI10942
asg6
(lp1848
I1488
aI2
aI7
aI3595
aI1635
aI639
aI22
aI130
asg8
I1108
sa(dp1849
g2
(lp1850
I10957
aI10959
aI10960
asg4
(lp1851
I10958
asg6
(lp1852
I17660
aI17661
aI2757
aI14
aI1685
aI567
aI25
aI4157
aI28
aI9256
aI42
aI20701
asg8
I1109
sa(dp1853
g2
(lp1854
I10962
aI10963
aI10964
asg4
(lp1855
I10961
asg6
(lp1856
I1488
aI2
aI7
aI121
aI5109
aI7068
aI714
asg8
I1110
sa(dp1857
g2
(lp1858
I11021
aI11022
aI11023
aI11024
aI11025
aI11026
aI11027
aI11028
asg4
(lp1859
I11020
asg6
(lp1860
I16164
aI1038
aI28
aI2343
aI876
aI927
aI1200
aI749
asg8
I1114
sa(dp1861
g2
(lp1862
I11044
aI11045
aI11047
aI11048
aI11049
aI11050
aI11051
aI11052
aI11053
aI11054
asg4
(lp1863
I11046
asg6
(lp1864
I14
aI16323
aI1650
aI1273
aI1790
asg8
I1116
sa(dp1865
g2
(lp1866
I11058
aI11059
aI11060
aI11062
aI11063
aI11064
aI11065
aI11066
aI11067
aI11068
aI11069
aI11070
aI11071
aI11072
aI11073
asg4
(lp1867
I11061
asg6
(lp1868
I420
aI260
aI408
aI10
aI14
aI983
aI16554
aI25
aI16135
aI702
aI1115
aI20777
aI1016
asg8
I1118
sa(dp1869
g2
(lp1870
I11074
aI11075
aI11076
aI11077
aI11079
aI11080
aI11081
aI11082
asg4
(lp1871
I11078
asg6
(lp1872
I17822
aI17823
aI1093
aI20789
aI9837
asg8
I1119
sa(dp1873
g2
(lp1874
I11083
aI11084
aI11085
aI11086
aI11087
aI11088
aI11091
aI11092
aI11093
aI11094
aI11095
aI11096
aI11097
aI11098
aI11099
aI11100
aI11101
aI11102
aI11103
aI11104
asg4
(lp1875
I11089
aI11090
asg6
(lp1876
I1488
aI354
aI7
aI12075
aI3418
asg8
I1120
sa(dp1877
g2
(lp1878
I11116
aI11117
aI11118
aI11119
aI11120
aI11121
aI11122
aI11123
aI11124
aI11125
aI11126
aI11127
aI11128
aI11129
asg4
(lp1879
I11115
asg6
(lp1880
I309
aI2658
aI122
aI3341
aI20818
aI125
asg8
I1122
sa(dp1881
g2
(lp1882
I11151
aI11152
aI11153
aI11154
aI11155
aI11156
aI11157
aI11158
aI11159
aI11160
aI11161
aI11162
aI11163
aI11164
aI11165
aI11166
aI11167
asg4
(lp1883
I11150
asg6
(lp1884
I15854
aI15855
aI354
aI14
aI560
aI1362
aI1157
asg8
I1126
sa(dp1885
g2
(lp1886
I11169
aI11170
aI11171
aI11172
aI11173
aI11174
aI11175
aI11176
asg4
(lp1887
I11168
asg6
(lp1888
I1488
aI160
aI122
aI4547
aI5725
aI2091
aI96
asg8
I1127
sa(dp1889
g2
(lp1890
I11177
aI11179
aI11180
aI11181
aI11182
aI11183
aI11184
aI11185
aI11186
aI11187
aI11188
aI11189
aI11190
aI11191
aI11192
aI11193
asg4
(lp1891
I11178
asg6
(lp1892
I2354
aI122
aI4699
aI9491
aI1646
aI6
asg8
I1128
sa(dp1893
g2
(lp1894
I11197
aI11199
aI11200
aI11201
asg4
(lp1895
I11198
asg6
(lp1896
I16766
aI122
aI20851
aI781
aI128
asg8
I1130
sa(dp1897
g2
(lp1898
I11206
aI11207
aI11208
aI11210
aI11211
aI11212
asg4
(lp1899
I11209
asg6
(lp1900
I1488
aI14893
aI2
aI14920
aI25
aI2483
asg8
I1132
sa(dp1901
g2
(lp1902
I11213
aI11215
aI11216
aI11217
aI11218
aI11219
aI11220
asg4
(lp1903
I11214
asg6
(lp1904
I1488
aI918
aI2122
aI380
aI139
aI22
aI7
aI3641
aI1841
asg8
I1133
sa(dp1905
g2
(lp1906
I11226
aI11228
aI11229
aI11230
aI11231
aI11232
aI11233
aI11234
aI11235
aI11236
asg4
(lp1907
I11227
asg6
(lp1908
I1488
aI76
aI25
aI14
aI279
aI3664
aI14
aI665
aI3963
aI1405
aI6
asg8
I1135
sa(dp1909
g2
(lp1910
I11238
aI11239
asg4
(lp1911
I11237
asg6
(lp1912
I1488
aI160
aI2
aI14
aI4199
aI22
asg8
I1136
sa(dp1913
g2
(lp1914
I11240
aI11241
aI11243
aI11244
aI11245
aI11246
aI11247
aI11248
aI11249
aI11250
aI11251
aI11252
aI11253
aI11254
aI11255
aI11256
aI11257
aI11258
aI11259
aI11260
aI11261
aI11262
aI11263
aI11264
asg4
(lp1915
I11242
asg6
(lp1916
I1488
aI2
aI3188
aI1596
aI27
aI6
asg8
I1137
sa(dp1917
g2
(lp1918
I11266
aI11267
aI11268
aI11269
aI11270
aI11271
aI11272
aI11273
aI11274
aI11275
aI11276
aI11277
aI11278
asg4
(lp1919
I11265
asg6
(lp1920
I1488
aI2
aI7
aI7251
aI1920
asg8
I1138
sa(dp1921
g2
(lp1922
I11289
aI11291
aI11292
asg4
(lp1923
I11290
asg6
(lp1924
I14
aI16323
aI1093
aI21012
aI3452
asg8
I1140
sa(dp1925
g2
(lp1926
I11305
aI11306
aI11307
aI11308
aI11309
asg4
(lp1927
I11304
asg6
(lp1928
I1488
aI10823
aI2
aI21023
aI3484
asg8
I1142
sa(dp1929
g2
(lp1930
I11312
aI11313
asg4
(lp1931
I11310
aI11311
asg6
(lp1932
I7
aI870
aI4527
aI2477
aI3328
aI254
aI16702
aI5001
aI25
aI14
aI219
aI279
aI28
aI471
aI9401
aI5001
aI25
aI14
aI16703
aI25
aI16704
aI28
aI42
aI7
aI1184
aI4481
aI3199
aI1595
aI5001
aI28
aI828
aI22
aI42
aI69
aI219
aI313
aI1670
aI358
aI865
aI7124
aI54
aI358
aI865
aI378
asg8
I1143
sa(dp1933
g2
(lp1934
I11326
aI11328
aI11329
aI11330
aI11331
aI11332
aI11333
aI11334
aI11335
aI11336
aI11337
aI11338
aI11339
aI11340
aI11341
aI11342
aI11343
aI11344
aI11345
aI11346
aI11347
aI11348
aI11349
aI11350
aI11351
aI11352
aI11353
aI11354
aI11355
asg4
(lp1935
I11327
asg6
(lp1936
I1488
aI226
aI2
aI9572
aI3491
asg8
I1145
sa(dp1937
g2
(lp1938
I11360
aI11361
aI11363
aI11364
aI11365
asg4
(lp1939
I11362
asg6
(lp1940
I17095
aI17096
aI962
aI22
aI21066
asg8
I1147
sa(dp1941
g2
(lp1942
I11434
aI11435
aI11436
aI11437
aI11438
aI11439
aI11440
aI11441
asg4
(lp1943
I11432
aI11433
asg6
(lp1944
I1488
aI2
aI21152
aI1035
asg8
I1154
sa(dp1945
g2
(lp1946
I11466
aI11467
aI11468
aI11469
aI11470
aI11471
aI11472
asg4
(lp1947
I11465
asg6
(lp1948
I18337
aI18338
aI1540
aI15941
asg8
I1158
sa(dp1949
g2
(lp1950
I11499
aI11500
aI11501
aI11502
aI11503
aI11504
aI11505
aI11507
aI11508
aI11509
aI11510
aI11511
aI11512
aI11513
aI11514
aI11515
aI11516
asg4
(lp1951
I11506
asg6
(lp1952
I17095
aI17096
aI354
aI9488
aI6779
asg8
I1161
sa(dp1953
g2
(lp1954
I11518
asg4
(lp1955
I11517
asg6
(lp1956
I1488
aI2
aI21253
aI1338
asg8
I1162
sa(dp1957
g2
(lp1958
I11527
aI11529
aI11530
aI11531
aI11532
aI11533
aI11534
aI11535
aI11536
aI11537
aI11538
aI11539
aI11540
aI11541
aI11542
aI11543
aI11544
asg4
(lp1959
I11528
asg6
(lp1960
I16150
aI3280
aI28
aI877
aI122
aI21259
aI21260
aI1695
asg8
I1164
sa(dp1961
g2
(lp1962
I11545
aI11547
aI11548
aI11549
aI11550
aI11551
aI11552
aI11553
aI11554
aI11555
aI11556
aI11557
aI11558
asg4
(lp1963
I11546
asg6
(lp1964
I1488
aI2
aI21285
aI10475
asg8
I1165
sa(dp1965
g2
(lp1966
I11649
aI11651
aI11652
aI11653
aI11654
aI11655
aI11656
aI11657
aI11658
aI11659
aI11660
asg4
(lp1967
I11650
asg6
(lp1968
I1488
aI2
aI774
aI845
aI1713
asg8
I1179
sa(dp1969
g2
(lp1970
I11693
aI11694
asg4
(lp1971
I11692
asg6
(lp1972
I15810
aI15811
aI708
aI2262
aI3134
asg8
I1182
sa(dp1973
g2
(lp1974
I11732
aI11733
asg4
(lp1975
I11731
asg6
(lp1976
I16198
aI42
aI9483
aI1821
aI2454
aI122
aI3644
aI1038
aI191
aI2481
asg8
I1186
sa(dp1977
g2
(lp1978
I11762
aI11763
aI11766
aI11767
aI11768
aI11769
aI11770
asg4
(lp1979
I11761
aI11764
aI11765
asg6
(lp1980
I6085
aI15621
aI28
aI42
aI15620
aI42
aI16968
aI16075
aI122
aI1975
aI10042
aI781
aI128
asg8
I1189
sa(dp1981
g2
(lp1982
I11813
aI11814
aI11815
aI11816
asg4
(lp1983
I11812
asg6
(lp1984
I15490
aI15491
aI824
aI2167
aI17613
aI708
aI14
aI869
aI8436
asg8
I1195
sa(dp1985
g2
(lp1986
I11818
aI11819
aI11820
aI11821
aI11822
aI11823
aI11824
aI11825
aI11826
aI11827
aI11828
aI11829
aI11830
aI11831
aI11832
aI11833
aI11834
asg4
(lp1987
I11817
asg6
(lp1988
I5060
aI122
aI4511
aI4512
aI573
aI4518
asg8
I1196
sa(dp1989
g2
(lp1990
I11835
aI11836
aI11837
aI11838
aI11840
aI11841
aI11842
aI11843
aI11844
aI11845
asg4
(lp1991
I11839
asg6
(lp1992
I15858
aI2
aI7
aI9305
aI3134
aI1435
aI90
aI5
aI22
aI882
aI42
aI15842
aI22
aI2166
aI1568
aI1579
aI1685
aI25
aI1355
aI6261
asg8
I1197
sa(dp1993
g2
(lp1994
I11846
aI11848
aI11849
aI11850
aI11851
aI11852
asg4
(lp1995
I11847
asg6
(lp1996
I1488
aI2
aI7
aI6652
aI22
aI1848
asg8
I1198
sa(dp1997
g2
(lp1998
I11877
aI11878
aI11879
asg4
(lp1999
I11876
asg6
(lp2000
I15677
aI28
aI15620
aI15678
aI15679
aI28
aI42
aI15680
aI28
aI414
aI22
aI15620
aI15681
aI139
aI6485
aI21642
aI22
aI14
aI217
asg8
I1202
sa(dp2001
g2
(lp2002
I11881
aI11882
aI11883
aI11884
aI11885
aI11886
asg4
(lp2003
I11880
asg6
(lp2004
I1488
aI2
aI7
aI730
aI22
aI7
aI729
aI5464
asg8
I1203
sa(dp2005
g2
(lp2006
I11888
aI11889
aI11890
aI11891
aI11892
aI11893
aI11894
aI11897
asg4
(lp2007
I11887
aI11895
aI11896
asg6
(lp2008
I14
aI10069
aI547
aI122
aI213
aI10631
aI923
aI173
aI4601
asg8
I1204
sa(dp2009
g2
(lp2010
I11917
aI11919
aI11920
aI11921
asg4
(lp2011
I11918
asg6
(lp2012
I15942
aI64
aI190
aI15943
aI190
aI15944
aI82
aI15945
aI190
aI15946
aI82
aI15947
aI28
aI15943
aI190
aI201
aI14500
aI190
aI3909
aI190
aI161
aI203
aI66
aI2
aI153
aI25
aI14
aI1221
aI25
aI15948
aI22
aI14
aI15669
aI15670
aI133
aI467
aI133
aI22
aI4125
aI5651
aI12608
aI1488
aI7
aI5208
aI137
asg8
I1208
sa(dp2013
g2
(lp2014
I11922
aI11923
aI11924
aI11926
aI11927
aI11928
aI11929
aI11930
aI11931
aI11932
aI11933
aI11934
aI11935
aI11936
aI11937
asg4
(lp2015
I11925
asg6
(lp2016
I1488
aI359
aI2
aI14
aI226
aI3499
asg8
I1209
sa(dp2017
g2
(lp2018
I11965
aI11968
aI11969
aI11970
aI11971
aI11972
aI11973
aI11974
aI11975
asg4
(lp2019
I11966
aI11967
asg6
(lp2020
I1488
aI49
aI2
aI6483
aI21716
aI7222
aI7
aI76
aI25
asg8
I1213
sa(dp2021
g2
(lp2022
I11985
aI11986
asg4
(lp2023
I11983
aI11984
asg6
(lp2024
I1488
aI4437
aI2230
aI2
aI14
aI3933
aI14363
aI10
aI6
asg8
I1216
sa(dp2025
g2
(lp2026
I11991
aI11992
aI11993
aI11994
asg4
(lp2027
I11995
aI11996
aI11997
asg6
(lp2028
I1488
aI2
aI14
aI2234
aI25
aI7
aI4528
aI855
asg8
I1218
sa(dp2029
g2
(lp2030
I12025
asg4
(lp2031
I12026
aI12027
aI12028
aI12029
aI12030
aI12031
asg6
(lp2032
I1488
aI2
aI1087
aI10
asg8
I1222
sa(dp2033
g2
(lp2034
I12032
aI12033
aI12036
aI12037
aI12038
aI12039
aI12040
aI12041
aI12042
aI12043
aI12044
aI12045
asg4
(lp2035
I12034
aI12035
asg6
(lp2036
I1488
aI2
aI3720
aI4587
asg8
I1223
sa(dp2037
g2
(lp2038
I12061
aI12062
asg4
(lp2039
I12060
asg6
(lp2040
I1488
aI725
aI122
aI18585
aI18586
aI1231
asg8
I1226
sa(dp2041
g2
(lp2042
I12082
aI12083
aI12084
aI12085
aI12086
asg4
(lp2043
I12081
asg6
(lp2044
I1488
aI2081
aI2
aI21840
aI351
asg8
I1231
sa(dp2045
g2
(lp2046
I12099
aI12100
aI12101
aI12102
aI12103
aI12104
aI12105
asg4
(lp2047
I12098
asg6
(lp2048
I1488
aI2
aI7
aI10803
aI10804
aI4724
aI1841
asg8
I1234
sa(dp2049
g2
(lp2050
I12133
aI12134
aI12135
aI12137
aI12138
aI12139
aI12140
aI12141
aI12142
aI12143
aI12144
aI12145
aI12146
aI12147
aI12148
aI12149
aI12150
aI12151
aI12152
asg4
(lp2051
I12136
asg6
(lp2052
I1793
aI6789
aI16070
aI1490
aI9374
aI279
asg8
I1236
sa(dp2053
g2
(lp2054
I12237
aI12238
aI12239
aI12240
aI12241
aI12242
aI12243
aI12244
aI12245
aI12246
aI12248
aI12249
aI12250
aI12251
aI12252
asg4
(lp2055
I12247
asg6
(lp2056
I1488
aI408
aI122
aI2736
aI1663
aI557
aI7
aI1843
aI22
aI10961
asg8
I1243
sa(dp2057
g2
(lp2058
I12274
aI12275
aI12276
asg4
(lp2059
I12272
aI12273
asg6
(lp2060
I1488
aI2
aI7
aI8034
aI25
aI529
asg8
I1245
sa(dp2061
g2
(lp2062
I12285
aI12286
aI12287
aI12289
aI12290
aI12291
aI12292
aI12293
aI12294
aI12295
aI12296
aI12297
aI12298
aI12299
aI12300
aI12301
aI12302
aI12303
aI12304
asg4
(lp2063
I12288
asg6
(lp2064
I16705
aI22
aI16706
aI16707
aI64
aI16708
aI66
aI122
aI498
aI1867
aI1790
aI1567
aI2405
aI6
asg8
I1247
sa(dp2065
g2
(lp2066
I12306
asg4
(lp2067
I12305
asg6
(lp2068
I18168
aI18169
aI18170
aI708
aI746
aI113
aI865
asg8
I1248
sa(dp2069
g2
(lp2070
I12307
aI12310
aI12311
aI12312
aI12313
aI12314
aI12315
aI12316
asg4
(lp2071
I12308
aI12309
asg6
(lp2072
I1488
aI2
aI8390
aI33
aI173
asg8
I1249
sa(dp2073
g2
(lp2074
I12335
aI12336
aI12338
asg4
(lp2075
I12337
asg6
(lp2076
I1488
aI2
aI14
aI161
aI25
aI14
aI22045
aI22046
asg8
I1251
sa(dp2077
g2
(lp2078
I12342
aI12343
aI12344
aI12345
aI12346
asg4
(lp2079
I12347
asg6
(lp2080
I16662
aI28
aI16663
aI122
aI14
aI10447
aI5485
aI22
aI535
asg8
I1253
sa(dp2081
g2
(lp2082
I12348
aI12350
aI12351
aI12352
aI12353
aI12354
aI12355
aI12356
aI12357
aI12358
asg4
(lp2083
I12349
asg6
(lp2084
I14
aI16924
aI25
aI14
aI773
aI1507
aI3162
aI25
aI16128
aI64
aI16128
aI5708
aI22
aI3178
aI66
aI122
aI9077
aI1650
aI1482
asg8
I1254
sa(dp2085
g2
(lp2086
I12372
aI12373
aI12374
aI12375
aI12376
aI12377
aI12378
aI12379
aI12380
aI12381
aI12382
aI12383
aI12384
aI12385
aI12386
aI12387
aI12388
aI12389
aI12390
aI12391
aI12392
aI12393
aI12394
aI12395
aI12396
asg4
(lp2087
I12371
asg6
(lp2088
I17028
aI8611
aI122
aI137
aI1393
aI1685
aI319
asg8
I1257
sa(dp2089
g2
(lp2090
I12398
aI12400
asg4
(lp2091
I12397
aI12399
asg6
(lp2092
I1488
aI2
aI7
aI15258
aI406
aI6
asg8
I1258
sa(dp2093
g2
(lp2094
I12401
aI12402
aI12403
aI12405
aI12406
aI12407
aI12408
aI12409
aI12410
asg4
(lp2095
I12404
asg6
(lp2096
I1488
aI2
aI3248
aI3982
asg8
I1259
sa(dp2097
g2
(lp2098
I12411
aI12412
aI12413
aI12414
aI12416
aI12417
asg4
(lp2099
I12415
asg6
(lp2100
I1488
aI2
aI7
aI22126
aI926
asg8
I1260
sa(dp2101
g2
(lp2102
I12419
aI12420
aI12421
aI12422
aI12423
aI12424
aI12425
aI12426
aI12427
aI12428
aI12429
aI12430
asg4
(lp2103
I12418
asg6
(lp2104
I1488
aI2
aI7
aI10538
aI3194
aI33
aI173
asg8
I1261
sa(dp2105
g2
(lp2106
I12446
aI12448
aI12449
asg4
(lp2107
I12447
asg6
(lp2108
I15711
aI15805
aI16046
aI3577
aI14
aI1164
asg8
I1265
sa(dp2109
g2
(lp2110
I12459
aI12460
aI12461
aI12462
aI12463
aI12464
aI12467
aI12468
asg4
(lp2111
I12465
aI12466
asg6
(lp2112
I1488
aI2
aI14
aI5085
aI1141
aI173
aI22172
aI1035
asg8
I1268
sa(dp2113
g2
(lp2114
I12476
asg4
(lp2115
I12475
asg6
(lp2116
I1488
aI2
aI7
aI42
aI3337
aI22203
asg8
I1270
sa(dp2117
g2
(lp2118
I12478
aI12479
aI12480
asg4
(lp2119
I12477
asg6
(lp2120
I1488
aI694
aI2
aI7
aI22205
asg8
I1271
sa(dp2121
g2
(lp2122
I12486
aI12487
aI12488
aI12489
asg4
(lp2123
I12490
asg6
(lp2124
I160
aI25
aI16686
aI28
aI18057
aI28
aI17501
aI28
aI16848
aI28
aI42
aI18054
aI122
aI2018
aI22212
aI945
asg8
I1273
sa(dp2125
g2
(lp2126
I12492
aI12493
asg4
(lp2127
I12491
asg6
(lp2128
I18780
aI14
aI2242
aI2006
aI1743
aI19202
asg8
I1274
sa(dp2129
g2
(lp2130
I12497
aI12498
aI12500
aI12501
aI12502
aI12503
aI12504
aI12505
aI12506
aI12507
aI12508
aI12509
aI12510
aI12511
aI12512
aI12513
aI12514
aI12515
asg4
(lp2131
I12499
asg6
(lp2132
I340
aI34
aI16007
aI5228
aI28
aI42
aI34
aI2505
aI16008
aI5228
aI22
aI90
aI87
aI858
aI153
aI2452
aI2
aI87
aI858
aI1248
aI408
aI25
aI392
aI354
aI6683
asg8
I1276
sa(dp2133
g2
(lp2134
I12530
asg4
(lp2135
I12531
aI12532
asg6
(lp2136
I1488
aI2
aI14
aI922
aI6610
aI25
aI14
aI5828
aI1290
asg8
I1278
sa(dp2137
g2
(lp2138
I12542
aI12543
aI12544
aI12545
aI12546
aI12547
aI12549
aI12550
aI12551
aI12552
aI12553
aI12554
aI12555
aI12556
aI12557
asg4
(lp2139
I12548
asg6
(lp2140
I22244
aI2
aI12213
aI34
aI2019
aI14
aI928
aI25
aI5001
aI379
aI2895
aI11127
aI42
aI194
aI428
aI122
aI1620
aI1416
aI22245
asg8
I1280
sa(dp2141
g2
(lp2142
I12560
aI12561
aI12562
aI12563
aI12564
aI12565
aI12566
aI12567
aI12568
aI12569
aI12570
asg4
(lp2143
I12558
aI12559
asg6
(lp2144
I1488
aI2
aI9099
aI855
asg8
I1281
sa(dp2145
g2
(lp2146
I12571
aI12573
aI12574
aI12575
aI12576
aI12577
aI12578
aI12579
aI12580
aI12581
aI12582
aI12583
aI12584
asg4
(lp2147
I12572
asg6
(lp2148
I21648
aI21649
aI139
aI14
aI11654
aI22
aI14
aI1435
aI9288
aI2493
aI22
aI2461
asg8
I1282
sa(dp2149
g2
(lp2150
I12611
aI12612
aI12613
aI12614
aI12615
aI12616
aI12617
aI12618
aI12620
aI12621
aI12622
asg4
(lp2151
I12619
asg6
(lp2152
I1488
aI226
aI354
aI5510
aI34
aI4623
aI9867
asg8
I1285
sa(dp2153
g2
(lp2154
I12624
aI12625
aI12626
aI12627
aI12628
aI12629
aI12630
aI12631
aI12632
aI12633
aI12634
aI12635
aI12636
aI12637
aI12638
asg4
(lp2155
I12623
asg6
(lp2156
I16049
aI16466
aI12608
aI2041
aI22333
asg8
I1286
sa(dp2157
g2
(lp2158
I12639
aI12640
aI12641
aI12642
aI12644
aI12645
asg4
(lp2159
I12643
asg6
(lp2160
I1488
aI2
aI7
aI2341
aI22
aI14
aI2342
asg8
I1287
sa(dp2161
g2
(lp2162
I12694
aI12696
aI12697
aI12698
aI12699
aI12700
aI12701
aI12702
aI12703
aI12704
aI12705
asg4
(lp2163
I12695
asg6
(lp2164
I1371
aI380
aI22385
aI2
aI749
asg8
I1290
sa(dp2165
g2
(lp2166
I12723
aI12725
aI12726
aI12727
aI12728
aI12729
aI12730
aI12731
asg4
(lp2167
I12724
asg6
(lp2168
I1394
aI122
aI1920
aI25
aI98
aI308
asg8
I1294
sa(dp2169
g2
(lp2170
I12733
aI12734
aI12735
aI12736
aI12737
aI12738
aI12739
aI12740
aI12741
aI12742
aI12743
aI12744
asg4
(lp2171
I12732
asg6
(lp2172
I18328
aI122
aI13093
aI89
aI125
asg8
I1295
sa(dp2173
g2
(lp2174
I12746
aI12747
aI12748
aI12749
aI12750
aI12751
aI12753
aI12754
asg4
(lp2175
I12745
aI12752
asg6
(lp2176
I1488
aI2
aI349
aI42
aI351
asg8
I1296
sa(dp2177
g2
(lp2178
I12770
aI12771
aI12772
aI12773
aI12774
aI12775
aI12776
aI12777
aI12779
aI12780
aI12781
aI12782
aI12783
aI12784
aI12785
asg4
(lp2179
I12778
asg6
(lp2180
I1488
aI160
aI142
aI14
aI6422
aI8091
asg8
I1299
sa(dp2181
g2
(lp2182
I12791
aI12792
aI12793
aI12794
aI12795
aI12796
asg4
(lp2183
I12790
asg6
(lp2184
I16164
aI1038
aI28
aI2343
aI122
aI1385
aI1270
aI5230
aI22
aI22105
asg8
I1301
sa(dp2185
g2
(lp2186
I12798
aI12799
aI12800
aI12801
aI12802
asg4
(lp2187
I12797
asg6
(lp2188
I12257
aI1490
aI54
aI18497
aI1490
aI25
aI7
aI4072
aI2452
aI708
aI14
aI869
aI22497
aI22498
asg8
I1302
sa(dp2189
g2
(lp2190
I12812
aI12813
aI12815
aI12816
aI12817
aI12818
aI12819
asg4
(lp2191
I12811
aI12814
asg6
(lp2192
I1488
aI2
aI372
aI22518
asg8
I1305
sa(dp2193
g2
(lp2194
I12820
aI12821
aI12822
aI12824
aI12825
aI12826
aI12827
aI12828
aI12829
aI12830
aI12831
aI12832
aI12833
aI12834
aI12835
aI12836
aI12837
aI12838
aI12839
aI12840
aI12841
aI12842
aI12843
aI12844
aI12845
aI12846
aI12847
aI12848
asg4
(lp2195
I12823
asg6
(lp2196
I2354
aI122
aI14
aI1088
aI893
aI923
asg8
I1306
sa(dp2197
g2
(lp2198
I12854
aI12855
aI12856
aI12857
asg4
(lp2199
I12853
asg6
(lp2200
I1488
aI408
aI122
aI14475
aI291
aI22546
aI1101
aI34
aI368
aI7
aI1122
asg8
I1308
sa(dp2201
g2
(lp2202
I12858
aI12859
aI12860
aI12862
aI12863
aI12864
aI12865
aI12866
aI12867
aI12868
aI12869
asg4
(lp2203
I12861
asg6
(lp2204
I16540
aI3907
aI215
aI1545
aI16152
aI2548
aI122
aI11206
aI15171
aI384
aI923
asg8
I1309
sa(dp2205
g2
(lp2206
I12870
aI12871
aI12873
aI12874
aI12875
aI12876
asg4
(lp2207
I12872
asg6
(lp2208
I1488
aI256
aI25
aI6039
aI2
aI22550
aI22
aI6
asg8
I1310
sa(dp2209
g2
(lp2210
I12897
aI12898
aI12900
aI12901
aI12902
aI12903
aI12904
aI12905
aI12906
aI12907
aI12908
aI12909
aI12910
aI12911
aI12912
aI12913
aI12914
asg4
(lp2211
I12899
asg6
(lp2212
I1488
aI408
aI735
aI25
aI5404
aI354
aI6
asg8
I1313
sa(dp2213
g2
(lp2214
I12944
aI12945
aI12946
aI12947
aI12948
asg4
(lp2215
I12943
asg6
(lp2216
I1488
aI2
aI7304
aI1805
aI477
asg8
I1316
sa(dp2217
g2
(lp2218
I12949
aI12950
aI12951
aI12952
aI12953
aI12954
aI12955
aI12956
aI12957
aI12959
aI12960
aI12961
aI12962
aI12963
asg4
(lp2219
I12958
asg6
(lp2220
I1488
aI2197
aI5027
aI3887
aI14
aI2462
aI25
aI3484
aI3292
aI11865
aI6
asg8
I1317
sa(dp2221
g2
(lp2222
I12990
aI12991
aI12993
aI12994
aI12995
aI12996
aI12997
aI12998
asg4
(lp2223
I12992
asg6
(lp2224
I1488
aI2304
aI2
aI7
aI6154
aI15
aI15060
asg8
I1320
sa(dp2225
g2
(lp2226
I13022
aI13023
aI13024
aI13025
aI13026
aI13027
aI13028
aI13029
aI13030
aI13031
aI13034
aI13035
aI13036
aI13037
aI13038
aI13039
aI13040
aI13041
aI13042
aI13043
aI13044
aI13045
aI13046
aI13047
aI13048
aI13049
aI13050
aI13051
asg4
(lp2227
I13032
aI13033
asg6
(lp2228
I1469
aI6072
aI4494
asg8
I1322
sa(dp2229
g2
(lp2230
I13052
aI13053
aI13055
asg4
(lp2231
I13054
asg6
(lp2232
I1488
aI880
aI1017
aI1902
aI6
asg8
I1323
sa(dp2233
g2
(lp2234
I13069
aI13070
aI13071
asg4
(lp2235
I13067
aI13068
asg6
(lp2236
I1488
aI2
aI7
aI22746
aI13905
aI6
asg8
I1325
sa(dp2237
g2
(lp2238
I13134
aI13136
aI13137
aI13138
aI13139
aI13140
aI13141
aI13142
aI13143
aI13144
aI13145
aI13146
aI13147
asg4
(lp2239
I13135
asg6
(lp2240
I113
aI14
aI15490
aI15491
aI824
aI2167
aI17613
aI28
aI60
aI5742
aI128
aI14
aI1174
aI19370
aI19371
aI1093
aI4139
aI1067
aI57
aI557
aI7
aI160
asg8
I1335
sa(dp2241
g2
(lp2242
I13162
aI13163
aI13164
aI13165
aI13166
aI13167
aI13169
aI13170
aI13171
aI13172
aI13173
aI13174
aI13175
aI13176
aI13177
aI13178
aI13179
aI13180
asg4
(lp2243
I13161
aI13168
asg6
(lp2244
I16164
aI3042
aI28
aI5805
aI122
aI1564
aI9866
aI557
aI226
asg8
I1337
sa(dp2245
g2
(lp2246
I13182
asg4
(lp2247
I13181
asg6
(lp2248
I7
aI5811
aI614
aI16695
aI16086
aI42
aI14
aI16696
aI16697
aI4134
aI6413
aI10422
aI12608
aI1996
aI1378
asg8
I1338
sa(dp2249
g2
(lp2250
I13185
aI13186
aI13187
aI13188
aI13189
aI13190
aI13191
aI13192
aI13193
aI13194
aI13195
aI13196
aI13197
aI13198
aI13199
aI13200
aI13201
aI13202
aI13203
aI13204
aI13205
aI13206
asg4
(lp2251
I13184
asg6
(lp2252
I17888
aI17889
aI28
aI17890
aI17891
aI42
aI17892
aI17893
aI1568
aI14
aI388
aI6472
aI170
asg8
I1340
sa(dp2253
g2
(lp2254
I13221
aI13222
aI13223
aI13225
aI13226
asg4
(lp2255
I13224
asg6
(lp2256
I1428
aI122
aI14
aI1065
aI13373
aI308
asg8
I1342
sa(dp2257
g2
(lp2258
I13227
aI13228
aI13229
aI13231
aI13232
asg4
(lp2259
I13230
asg6
(lp2260
I1488
aI2
aI14
aI699
aI4879
asg8
I1343
sa(dp2261
g2
(lp2262
I13299
aI13300
aI13302
aI13303
aI13304
aI13305
aI13306
aI13307
aI13308
aI13309
aI13310
aI13311
aI13312
aI13313
aI13314
aI13315
aI13316
aI13317
aI13318
aI13319
aI13320
aI13321
aI13322
asg4
(lp2263
I13301
asg6
(lp2264
I16901
aI42
aI6612
aI7419
aI781
aI404
asg8
I1352
sa(dp2265
g2
(lp2266
I13330
aI13331
aI13332
aI13333
aI13334
aI13335
aI13336
aI13337
aI13338
aI13339
aI13340
aI13341
asg4
(lp2267
I13329
asg6
(lp2268
I1488
aI160
aI2
aI14840
asg8
I1354
sa(dp2269
g2
(lp2270
I13352
aI13353
aI13354
aI13355
aI13356
aI13357
asg4
(lp2271
I13351
asg6
(lp2272
I1488
aI7693
aI420
aI15029
aI122
aI23013
aI142
asg8
I1356
sa(dp2273
g2
(lp2274
I13358
aI13359
aI13361
aI13362
aI13363
asg4
(lp2275
I13360
asg6
(lp2276
I14
aI1538
aI78
aI10
aI562
aI15949
aI42
aI15950
aI647
aI60
aI255
aI2307
aI42
aI1177
aI28
aI463
aI142
aI7
aI910
aI25
aI8699
aI42
aI8650
aI2088
aI101
aI1793
aI7041
aI23028
asg8
I1357
sa(dp2277
g2
(lp2278
I13364
aI13365
aI13366
aI13368
aI13369
aI13370
aI13371
aI13372
aI13373
aI13374
aI13375
aI13376
aI13377
aI13378
aI13379
aI13380
aI13381
aI13382
aI13383
aI13384
asg4
(lp2279
I13367
asg6
(lp2280
I16341
aI16342
aI1023
aI23034
aI23035
asg8
I1358
sa(dp2281
g2
(lp2282
I13405
aI13406
aI13408
aI13409
aI13410
aI13411
aI13412
aI13413
aI13414
aI13415
aI13416
aI13417
aI13418
asg4
(lp2283
I13407
asg6
(lp2284
I1488
aI2
aI16038
aI3137
asg8
I1362
sa(dp2285
g2
(lp2286
I13420
aI13421
aI13422
aI13423
aI13424
aI13425
aI13426
asg4
(lp2287
I13419
asg6
(lp2288
I15722
aI15723
aI15724
aI13
aI406
aI28
aI7
aI2740
aI25
aI17886
aI28
aI17887
aI2732
aI390
aI1247
aI1698
aI2542
asg8
I1363
sa(dp2289
g2
(lp2290
I13453
asg4
(lp2291
I13454
asg6
(lp2292
I1488
aI2
aI7
aI23105
aI1529
asg8
I1367
sa(dp2293
g2
(lp2294
I13465
aI13466
aI13467
aI13468
aI13469
aI13470
aI13471
aI13472
aI13473
aI13474
aI13475
aI13477
aI13478
aI13479
aI13480
aI13481
aI13482
aI13483
aI13484
aI13485
aI13486
aI13487
aI13488
aI13489
aI13490
aI13491
asg4
(lp2295
I13476
asg6
(lp2296
I14
aI6342
aI14893
aI22
aI14
aI2264
aI16815
aI122
aI137
aI1393
aI658
aI923
asg8
I1369
sa(dp2297
g2
(lp2298
I13493
aI13494
aI13495
aI13496
aI13497
aI13498
aI13499
asg4
(lp2299
I13492
asg6
(lp2300
I1488
aI408
aI2
aI447
aI1204
aI1101
aI34
aI142
aI16019
aI749
asg8
I1370
sa(dp2301
g2
(lp2302
I13500
aI13502
aI13503
aI13504
aI13505
asg4
(lp2303
I13501
asg6
(lp2304
I934
aI58
aI1620
aI33
aI7
aI23127
asg8
I1371
sa(dp2305
g2
(lp2306
I13506
aI13508
aI13509
aI13510
aI13511
aI13512
aI13513
aI13514
aI13515
asg4
(lp2307
I13507
asg6
(lp2308
I14
aI845
aI25
aI14
aI15667
aI15668
aI22
aI14
aI15669
aI15670
aI28
aI1453
aI14
aI714
aI25
aI17098
aI42
aI17099
aI42
aI3372
aI14
aI714
aI25
aI14
aI3504
aI1540
aI14
aI15717
aI2363
asg8
I1372
sa(dp2309
g2
(lp2310
I13521
aI13522
aI13524
aI13525
aI13526
aI13527
aI13528
aI13529
aI13530
aI13531
asg4
(lp2311
I13523
asg6
(lp2312
I1488
aI2
aI14
aI1841
aI22
aI23147
aI6
asg8
I1374
sa(dp2313
g2
(lp2314
I13545
aI13546
aI13547
asg4
(lp2315
I13544
asg6
(lp2316
I15731
aI15732
aI708
aI14
aI869
aI7
aI2700
aI867
aI672
aI421
aI37
aI23165
asg8
I1376
sa(dp2317
g2
(lp2318
I13549
aI13550
aI13551
aI13552
aI13553
aI13554
aI13555
aI13556
aI13557
aI13558
aI13559
aI13560
aI13561
aI13562
asg4
(lp2319
I13548
asg6
(lp2320
I15860
aI15490
aI2405
aI15861
aI354
aI15351
asg8
I1377
sa(dp2321
g2
(lp2322
I13563
aI13564
aI13566
aI13567
aI13568
aI13569
asg4
(lp2323
I13565
asg6
(lp2324
I16128
aI1485
aI28
aI1429
aI122
aI7
aI1672
aI97
aI3712
aI6
asg8
I1378
sa(dp2325
g2
(lp2326
I13603
asg4
(lp2327
I13602
asg6
(lp2328
I1488
aI2
aI7
aI23230
aI8686
asg8
I1382
sa(dp2329
g2
(lp2330
I13657
aI13659
aI13660
aI13661
asg4
(lp2331
I13658
asg6
(lp2332
I1488
aI2
aI14
aI23254
aI1205
asg8
I1389
sa(dp2333
g2
(lp2334
I13663
aI13664
aI13665
aI13666
aI13667
aI13668
aI13669
aI13670
aI13671
aI13672
aI13673
aI13674
aI13675
aI13676
aI13677
aI13678
aI13679
aI13680
aI13681
aI13682
aI13683
aI13684
aI13685
aI13686
aI13687
aI13688
asg4
(lp2335
I13662
asg6
(lp2336
I181
aI215
aI1469
aI122
aI14
aI13603
aI1695
asg8
I1390
sa(dp2337
g2
(lp2338
I13690
asg4
(lp2339
I13689
asg6
(lp2340
I21178
aI18986
aI28
aI21179
aI2
aI14
aI2289
aI16495
aI5376
aI6
asg8
I1391
sa(dp2341
g2
(lp2342
I13695
aI13696
aI13698
asg4
(lp2343
I13697
asg6
(lp2344
I1488
aI2
aI1148
aI7
aI673
aI94
asg8
I1393
sa(dp2345
g2
(lp2346
I13704
aI13705
aI13706
aI13707
aI13708
aI13709
aI13710
aI13711
aI13712
aI13714
aI13715
aI13716
aI13717
aI13718
aI13719
aI13720
aI13721
aI13722
aI13723
asg4
(lp2347
I13713
asg6
(lp2348
I14
aI3202
aI25
aI15828
aI699
aI28
aI1172
aI64
aI15828
aI1485
aI22
aI15529
aI66
aI2
aI23310
aI5613
aI22
aI14
aI1731
aI25
aI2427
asg8
I1395
sa(dp2349
g2
(lp2350
I13732
aI13733
aI13735
aI13736
asg4
(lp2351
I13734
asg6
(lp2352
I1488
aI2
aI42
aI674
aI2
aI7439
aI1030
aI1416
aI42
aI33
aI173
asg8
I1397
sa(dp2353
g2
(lp2354
I13737
aI13738
aI13739
aI13742
aI13743
aI13744
aI13745
aI13746
aI13747
aI13748
aI13749
asg4
(lp2355
I13740
aI13741
asg6
(lp2356
I22
aI14
aI5450
aI1637
aI14
aI12801
aI22
aI15416
aI64
aI14
aI283
aI2
aI14
aI17255
aI66
aI28
aI42
aI2772
aI14
aI12801
aI60
aI14
aI12802
aI2696
aI2
aI23328
aI12533
aI354
asg8
I1398
sa(dp2357
g2
(lp2358
I13754
aI13756
aI13757
aI13759
aI13760
aI13761
aI13762
aI13763
aI13764
aI13765
aI13766
aI13767
aI13768
aI13769
aI13770
asg4
(lp2359
I13753
aI13755
aI13758
asg6
(lp2360
I1488
aI2
aI4461
aI503
aI22
aI14
aI665
asg8
I1400
sa(dp2361
g2
(lp2362
I13774
aI13776
aI13777
aI13778
aI13779
aI13780
aI13781
asg4
(lp2363
I13775
asg6
(lp2364
I1488
aI2
aI1148
aI34
aI2
aI7
aI146
asg8
I1402
sa(dp2365
g2
(lp2366
sg4
(lp2367
I13797
aI13798
asg6
(lp2368
I1488
aI2
aI23392
aI8686
asg8
I1404
sa(dp2369
g2
(lp2370
I13808
aI13809
aI13810
aI13811
aI13812
asg4
(lp2371
I13807
asg6
(lp2372
I1488
aI2
aI993
aI113
aI14
aI2289
aI11245
aI3770
aI6
asg8
I1406
sa(dp2373
g2
(lp2374
I13816
aI13818
aI13819
aI13820
aI13821
aI13822
aI13823
aI13824
aI13825
aI13826
aI13827
aI13828
asg4
(lp2375
I13817
asg6
(lp2376
I15825
aI174
aI28
aI950
aI22
aI16488
aI16481
aI28
aI16540
aI2420
aI28
aI3360
aI22
aI15529
aI28
aI42
aI16143
aI700
aI28
aI3360
aI22
aI17553
aI42
aI16679
aI2
aI14
aI191
aI6485
aI21642
aI714
aI708
asg8
I1408
sa(dp2377
g2
(lp2378
I13839
aI13840
aI13841
aI13842
aI13843
aI13844
aI13845
aI13846
aI13847
aI13848
aI13850
asg4
(lp2379
I13849
asg6
(lp2380
I1488
aI2
aI23429
aI772
asg8
I1410
sa(dp2381
g2
(lp2382
sg4
(lp2383
I13865
asg6
(lp2384
I1488
aI2
aI14
aI1325
aI25
aI14
aI23468
aI23469
aI6
asg8
I1412
sa(dp2385
g2
(lp2386
I13869
asg4
(lp2387
I13866
aI13867
aI13868
asg6
(lp2388
I1488
aI2
aI11429
aI54
aI23478
aI6
asg8
I1413
sa(dp2389
g2
(lp2390
I13895
aI13896
aI13897
aI13898
aI13899
aI13900
aI13901
aI13902
asg4
(lp2391
I13893
aI13894
asg6
(lp2392
I1488
aI2
aI2417
aI2593
aI25
asg8
I1417
sa(dp2393
g2
(lp2394
I13904
aI13905
aI13906
asg4
(lp2395
I13903
asg6
(lp2396
I15693
aI15694
aI15695
aI2
aI6483
aI128
aI417
aI6361
aI15693
aI15694
aI15695
aI2
aI14
aI3134
aI1245
asg8
I1418
sa(dp2397
g2
(lp2398
I13907
aI13909
aI13910
aI13911
aI13912
aI13913
aI13914
aI13915
aI13916
aI13917
aI13918
aI13919
aI13921
aI13922
asg4
(lp2399
I13908
aI13920
aI13923
asg6
(lp2400
I1488
aI2
aI1824
aI515
aI173
asg8
I1419
sa(dp2401
g2
(lp2402
I13951
aI13952
aI13953
asg4
(lp2403
I13950
asg6
(lp2404
I1488
aI2
aI15396
aI23552
aI4930
asg8
I1421
sa(dp2405
g2
(lp2406
I13965
asg4
(lp2407
I13964
asg6
(lp2408
I17392
aI17393
aI2
aI6508
aI3508
aI128
aI10039
aI645
aI945
asg8
I1423
sa(dp2409
g2
(lp2410
I13967
aI13968
aI13969
aI13970
aI13971
aI13972
aI13973
asg4
(lp2411
I13966
asg6
(lp2412
I1488
aI2
aI14
aI3963
aI4780
aI1742
aI22
aI5651
aI6
asg8
I1424
sa(dp2413
g2
(lp2414
I13976
aI13977
aI13978
aI13979
aI13980
asg4
(lp2415
I13974
aI13975
asg6
(lp2416
I16225
aI16226
aI16227
aI42
aI16228
aI15694
aI16229
aI2
aI14
aI855
aI18336
asg8
I1425
sa(dp2417
g2
(lp2418
I13982
aI13983
aI13984
aI13985
aI13986
aI13987
aI13988
aI13989
aI13990
aI13991
aI13992
aI13993
asg4
(lp2419
I13981
asg6
(lp2420
I3975
aI2
aI23585
aI23586
aI1540
asg8
I1426
sa(dp2421
g2
(lp2422
I14011
aI14012
aI14013
aI14014
aI14015
aI14016
asg4
(lp2423
I14010
asg6
(lp2424
I1488
aI2
aI14
aI219
aI378
aI7422
asg8
I1428
sa(dp2425
g2
(lp2426
I14022
aI14023
aI14024
aI14025
aI14026
aI14027
aI14028
aI14029
aI14030
asg4
(lp2427
I14021
asg6
(lp2428
I877
aI2
aI11309
aI1157
asg8
I1430
sa(dp2429
g2
(lp2430
I14041
aI14042
aI14044
aI14045
aI14046
aI14047
aI14048
aI14049
asg4
(lp2431
I14043
asg6
(lp2432
I16209
aI16325
aI164
aI2
aI14
aI6586
aI25
aI6683
asg8
I1432
sa(dp2433
g2
(lp2434
I14068
aI14070
aI14071
aI14072
aI14073
aI14074
aI14075
aI14076
aI14077
aI14078
aI14079
aI14080
asg4
(lp2435
I14069
asg6
(lp2436
I1488
aI2
aI14
aI521
aI13356
asg8
I1435
sa(dp2437
g2
(lp2438
I14081
aI14083
aI14084
aI14085
asg4
(lp2439
I14082
asg6
(lp2440
I15621
aI42
aI7
aI1972
aI910
aI22
aI16826
aI2
aI14
aI1910
aI480
aI22
aI7
aI23690
asg8
I1436
sa(dp2441
g2
(lp2442
I14086
aI14088
aI14089
aI14090
aI14091
aI14092
aI14093
aI14094
aI14095
aI14096
aI14097
aI14098
asg4
(lp2443
I14087
asg6
(lp2444
I15702
aI15703
aI2
aI10
aI14
aI4481
aI3184
aI1726
asg8
I1437
sa(dp2445
g2
(lp2446
I14109
aI14110
aI14111
aI14112
aI14113
aI14114
aI14115
aI14116
aI14117
aI14118
aI14119
aI14120
aI14121
aI14122
aI14123
aI14124
aI14125
aI14126
aI14127
aI14128
aI14129
aI14130
aI14131
aI14132
aI14133
aI14134
aI14135
asg4
(lp2447
I14108
asg6
(lp2448
I1488
aI2
aI23721
aI515
aI173
asg8
I1439
sa(dp2449
g2
(lp2450
I14177
aI14178
aI14179
aI14180
aI14181
aI14182
aI14183
aI14184
aI14185
aI14186
aI14187
aI14188
aI14189
aI14190
aI14191
aI14192
aI14193
asg4
(lp2451
I14176
asg6
(lp2452
I16526
aI15487
aI28
aI16488
aI16527
aI28
aI15490
aI15491
aI2
aI3887
aI23798
aI128
asg8
I1444
sa(dp2453
g2
(lp2454
sg4
(lp2455
I14194
asg6
(lp2456
I14
aI4289
aI15850
aI142
aI7
aI477
aI25
aI1943
aI37
aI2
aI1534
aI4171
aI173
aI75
aI384
aI42
aI1257
aI930
aI2724
aI1986
aI2
aI1560
aI11515
aI34
aI14
aI9850
aI3439
asg8
I1445
sa(dp2457
g2
(lp2458
I14195
aI14197
aI14198
aI14199
aI14200
aI14201
aI14202
aI14203
aI14204
aI14205
aI14206
aI14207
aI14208
aI14209
aI14210
aI14211
aI14212
aI14213
aI14214
aI14215
aI14216
aI14217
asg4
(lp2459
I14196
asg6
(lp2460
I1488
aI2
aI23815
aI6432
aI33
aI173
asg8
I1446
sa(dp2461
g2
(lp2462
I14219
aI14220
aI14221
aI14222
aI14223
aI14224
aI14225
aI14226
asg4
(lp2463
I14218
asg6
(lp2464
I17028
aI2626
aI28
aI9726
aI2
aI8589
aI4139
aI22
asg8
I1447
sa(dp2465
g2
(lp2466
I14227
aI14228
aI14229
aI14230
aI14231
aI14232
aI14234
aI14235
asg4
(lp2467
I14233
asg6
(lp2468
I1488
aI2
aI23844
aI33
aI173
asg8
I1448
sa(dp2469
g2
(lp2470
I14238
aI14239
aI14240
aI14241
asg4
(lp2471
I14237
asg6
(lp2472
I1488
aI2
aI19633
aI173
aI12013
aI6
asg8
I1450
sa(dp2473
g2
(lp2474
sg4
(lp2475
I14242
aI14243
asg6
(lp2476
I17955
aI28
aI7
aI1174
aI10782
aI406
aI2
aI3519
aI109
aI1386
aI4498
aI7775
asg8
I1451
sa(dp2477
g2
(lp2478
I14303
aI14304
aI14305
aI14306
aI14307
aI14308
aI14309
aI14310
asg4
(lp2479
I14302
asg6
(lp2480
I1488
aI2
aI397
aI161
aI173
aI14
aI673
aI992
asg8
I1458
sa(dp2481
g2
(lp2482
I14312
aI14313
aI14314
aI14315
aI14316
aI14317
aI14318
aI14319
aI14320
aI14321
aI14322
asg4
(lp2483
I14311
asg6
(lp2484
I16649
aI2
aI2808
aI4402
aI6096
aI128
asg8
I1459
sa(dp2485
g2
(lp2486
I14324
aI14325
aI14326
aI14327
asg4
(lp2487
I14323
asg6
(lp2488
I16093
aI16497
aI16685
aI17549
aI17550
aI17551
aI22
aI18756
aI109
aI16471
aI87
aI16472
aI18757
aI2
aI14
aI3071
aI87
aI22
aI1261
aI1949
asg8
I1460
sa(dp2489
g2
(lp2490
I14328
aI14329
aI14330
aI14331
aI14332
asg4
(lp2491
I14333
asg6
(lp2492
I17025
aI2
aI14
aI137
aI25
aI8454
aI8455
aI328
asg8
I1461
sa(dp2493
g2
(lp2494
I14337
aI14338
aI14339
aI14340
aI14342
asg4
(lp2495
I14341
asg6
(lp2496
I16135
aI5708
aI28
aI468
aI2
aI1541
aI2667
aI3724
aI173
aI12665
asg8
I1463
sa(dp2497
g2
(lp2498
I14343
aI14344
aI14345
aI14347
aI14348
aI14349
aI14350
aI14351
asg4
(lp2499
I14346
asg6
(lp2500
I1488
aI2
aI14
aI856
aI2867
aI22
aI535
aI42
aI674
aI2
aI2
aI5376
aI6
asg8
I1464
sa(dp2501
g2
(lp2502
I14354
aI14355
aI14356
aI14357
aI14358
aI14359
aI14360
aI14361
aI14362
aI14363
aI14364
aI14365
asg4
(lp2503
I14352
aI14353
asg6
(lp2504
I1488
aI2
aI14
aI191
aI7687
aI94
asg8
I1465
sa(dp2505
g2
(lp2506
I14367
aI14368
aI14369
aI14370
aI14371
aI14372
aI14373
aI14374
aI14375
aI14376
asg4
(lp2507
I14366
asg6
(lp2508
I16135
aI658
aI28
aI877
aI2
aI23956
aI4953
aI8407
aI354
asg8
I1466
sa(dp2509
g2
(lp2510
I14378
asg4
(lp2511
I14377
asg6
(lp2512
I1488
aI2
aI1304
aI23966
asg8
I1467
sa(dp2513
g2
(lp2514
I14379
aI14380
aI14382
aI14383
aI14384
aI14385
aI14386
aI14387
aI14388
asg4
(lp2515
I14381
asg6
(lp2516
I870
aI15747
aI2
aI14
aI7904
aI25
aI14
aI23967
aI7914
aI6
asg8
I1468
sa(dp2517
g2
(lp2518
I14389
aI14392
aI14393
aI14394
aI14395
aI14396
aI14397
aI14398
aI14399
aI14400
aI14401
aI14402
aI14403
aI14404
aI14405
aI14406
asg4
(lp2519
I14390
aI14391
asg6
(lp2520
I17504
aI2
aI23984
aI22
aI14
aI2619
asg8
I1469
sa(dp2521
g2
(lp2522
I14408
aI14409
aI14410
aI14411
aI14412
aI14413
asg4
(lp2523
I14407
asg6
(lp2524
I1488
aI2
aI556
aI24022
aI6
asg8
I1470
sa(dp2525
g2
(lp2526
I14414
aI14416
aI14417
aI14418
aI14419
aI14420
aI14421
aI14422
aI14423
asg4
(lp2527
I14415
asg6
(lp2528
I15489
aI42
aI15620
aI16481
aI2
aI14
aI672
aI24030
aI480
asg8
I1471
sa(dp2529
g2
(lp2530
I14437
aI14438
aI14439
aI14440
aI14441
aI14442
aI14443
aI14444
asg4
(lp2531
I14445
asg6
(lp2532
I1488
aI2
aI14
aI856
aI1524
aI22
aI24050
asg8
I1474
sa(dp2533
g2
(lp2534
I14456
aI14457
asg4
(lp2535
I14455
aI14458
asg6
(lp2536
I1488
aI2
aI11226
aI11548
asg8
I1477
sa(dp2537
g2
(lp2538
I14461
aI14462
aI14463
aI14464
aI14465
aI14466
aI14467
asg4
(lp2539
I14459
aI14460
asg6
(lp2540
I1488
aI2
aI24065
aI18229
aI1635
asg8
I1478
sa(dp2541
g2
(lp2542
I14483
aI14484
aI14485
aI14486
aI14487
aI14488
aI14489
asg4
(lp2543
I14482
asg6
(lp2544
I21711
aI28
aI16488
aI16527
aI2
aI24082
aI22
aI9311
asg8
I1481
sa(dp2545
g2
(lp2546
I14490
aI14491
aI14492
aI14494
asg4
(lp2547
I14493
asg6
(lp2548
I1488
aI2
aI2196
aI4498
aI7280
aI33
aI173
asg8
I1482
sa(dp2549
g2
(lp2550
I14496
aI14497
aI14498
aI14499
aI14500
aI14501
aI14502
aI14503
aI14504
asg4
(lp2551
I14495
asg6
(lp2552
I1488
aI2
aI14
aI24098
aI1657
asg8
I1483
sa(dp2553
g2
(lp2554
I14530
aI14531
aI14532
aI14533
aI14534
aI14535
aI14536
aI14537
aI14538
aI14539
aI14540
asg4
(lp2555
I14529
asg6
(lp2556
I12257
aI1490
aI54
aI18497
aI1490
aI25
aI7
aI4072
aI2452
aI2
aI14
aI6449
aI1431
aI22
aI617
aI175
aI60
aI20381
aI22
aI14
aI2307
aI6
aI7808
aI64
aI619
aI66
aI7808
asg8
I1486
sa(dp2557
g2
(lp2558
I14541
aI14542
aI14543
aI14544
aI14545
aI14546
aI14547
aI14548
aI14549
aI14550
aI14551
aI14552
asg4
(lp2559
I14553
asg6
(lp2560
I16209
aI16210
aI42
aI15895
aI16211
aI2
aI14
aI1926
aI265
aI266
aI25
aI14
aI280
aI235
aI236
aI6
asg8
I1487
sa(dp2561
g2
(lp2562
I14559
aI14560
aI14561
aI14563
aI14564
aI14565
aI14566
aI14567
aI14568
aI14569
aI14570
aI14571
aI14572
aI14573
aI14574
aI14575
asg4
(lp2563
I14562
asg6
(lp2564
I1733
aI2
aI14
aI870
aI4527
aI2477
aI5
asg8
I1489
sa(dp2565
g2
(lp2566
I14599
aI14601
asg4
(lp2567
I14600
asg6
(lp2568
I1488
aI2
aI14
aI521
aI184
aI2477
asg8
I1491
sa(dp2569
g2
(lp2570
I14603
aI14604
aI14605
aI14606
aI14607
aI14608
aI14609
aI14610
asg4
(lp2571
I14602
asg6
(lp2572
I1488
aI2
aI14
aI1431
aI8403
aI17386
aI1507
aI161
asg8
I1492
sa(dp2573
g2
(lp2574
I14612
aI14613
aI14614
aI14615
aI14616
aI14617
aI14618
aI14619
aI14620
aI14621
aI14622
aI14623
asg4
(lp2575
I14611
asg6
(lp2576
I1488
aI2
aI586
aI25
aI24179
asg8
I1493
sa(dp2577
g2
(lp2578
I14624
aI14626
aI14627
aI14628
asg4
(lp2579
I14625
asg6
(lp2580
I15726
aI15726
aI2
aI417
aI24204
aI25
aI962
aI1393
asg8
I1494
sa(dp2581
g2
(lp2582
I14651
aI14652
aI14653
aI14655
asg4
(lp2583
I14650
aI14654
asg6
(lp2584
I1488
aI2
aI7
aI13371
aI14074
aI24218
asg8
I1497
sa(dp2585
g2
(lp2586
I14694
aI14696
aI14697
aI14698
aI14699
asg4
(lp2587
I14695
asg6
(lp2588
I1488
aI2
aI11548
aI354
aI128
asg8
I1502
sa(dp2589
g2
(lp2590
I14700
aI14702
aI14703
aI14704
aI14705
aI14706
aI14707
aI14708
aI14709
aI14710
asg4
(lp2591
I14701
asg6
(lp2592
I1488
aI2
aI1793
aI1258
aI2978
aI63
aI87
aI392
aI5708
asg8
I1503
sa(dp2593
g2
(lp2594
I14711
aI14713
aI14714
aI14715
aI14716
aI14717
asg4
(lp2595
I14712
asg6
(lp2596
I1488
aI2
aI14
aI161
aI173
aI7
aI860
aI24273
aI4163
asg8
I1504
sa(dp2597
g2
(lp2598
I14719
aI14720
aI14721
aI14722
aI14723
aI14724
aI14725
aI14726
aI14727
aI14728
aI14729
asg4
(lp2599
I14718
asg6
(lp2600
I18925
aI2226
aI2
aI14
aI24284
aI22
aI2217
asg8
I1505
sa(dp2601
g2
(lp2602
I14730
aI14731
aI14732
aI14734
aI14735
aI14736
aI14737
aI14738
aI14739
aI14740
aI14741
aI14742
aI14743
aI14744
aI14745
aI14746
aI14747
aI14748
aI14749
aI14750
aI14751
aI14752
asg4
(lp2603
I14733
asg6
(lp2604
I1488
aI2
aI14
aI1289
aI25
aI6425
aI1673
asg8
I1506
sa(dp2605
g2
(lp2606
I14754
aI14755
asg4
(lp2607
I14753
asg6
(lp2608
I1488
aI2
aI9611
aI24298
asg8
I1507
sa(dp2609
g2
(lp2610
I14756
aI14758
aI14759
aI14760
asg4
(lp2611
I14757
asg6
(lp2612
I17327
aI17328
aI2
aI24300
aI24301
aI24302
aI22
aI2465
aI1393
asg8
I1508
sa(dp2613
g2
(lp2614
I14788
aI14789
aI14790
aI14791
aI14792
aI14793
aI14794
aI14795
asg4
(lp2615
I14787
asg6
(lp2616
I1488
aI2
aI397
aI161
aI173
aI5069
asg8
I1511
sa(dp2617
g2
(lp2618
I14846
aI14847
aI14848
aI14850
aI14851
aI14852
aI14853
aI14854
aI14855
aI14856
aI14857
aI14858
asg4
(lp2619
I14849
asg6
(lp2620
I12257
aI1490
aI54
aI18497
aI1490
aI25
aI7
aI4072
aI2452
aI2
aI3758
aI60
aI7068
aI884
aI14
aI7402
aI87
aI1793
aI24356
asg8
I1517
sa(dp2621
g2
(lp2622
I14903
aI14906
aI14907
aI14908
aI14909
aI14910
aI14911
aI14912
asg4
(lp2623
I14904
aI14905
asg6
(lp2624
I1488
aI2
aI3570
aI917
aI471
asg8
I1522
sa(dp2625
g2
(lp2626
I14915
aI14916
aI14917
aI14918
aI14919
aI14920
asg4
(lp2627
I14913
aI14914
asg6
(lp2628
I1488
aI2
aI4793
aI617
aI1282
asg8
I1523
sa(dp2629
g2
(lp2630
I14921
aI14923
aI14924
aI14925
aI14926
asg4
(lp2631
I14922
asg6
(lp2632
I1488
aI2
aI14
aI222
aI25
aI24443
aI728
aI299
asg8
I1524
sa(dp2633
g2
(lp2634
I14928
aI14929
aI14930
asg4
(lp2635
I14927
asg6
(lp2636
I1488
aI2
aI20
aI4617
aI5437
aI6
asg8
I1525
sa(dp2637
g2
(lp2638
I14933
aI14934
asg4
(lp2639
I14931
aI14932
asg6
(lp2640
I1488
aI2
aI14
aI639
aI25
aI24455
asg8
I1526
sa(dp2641
g2
(lp2642
I14950
aI14951
aI14952
aI14953
aI14954
asg4
(lp2643
I14949
asg6
(lp2644
I1488
aI2
aI4669
aI7283
aI910
asg8
I1529
sa(dp2645
g2
(lp2646
I14957
aI14958
aI14959
aI14960
aI14961
aI14962
aI14963
aI14964
aI14965
aI14966
aI14967
aI14968
asg4
(lp2647
I14955
aI14956
asg6
(lp2648
I1488
aI2
aI24478
aI33
aI173
asg8
I1530
sa(dp2649
g2
(lp2650
I14970
aI14971
aI14972
aI14973
aI14974
aI14975
aI14976
aI14977
aI14978
aI14979
aI14980
aI14981
asg4
(lp2651
I14969
asg6
(lp2652
I1488
aI2
aI57
aI627
aI87
aI5118
aI24494
aI6
asg8
I1531
sa(dp2653
g2
(lp2654
I14982
aI14983
aI14984
aI14985
aI14986
aI14987
aI14988
asg4
(lp2655
I14989
asg6
(lp2656
I1488
aI2
aI24503
aI13358
aI6
asg8
I1532
sa(dp2657
g2
(lp2658
I14990
aI14992
aI14993
asg4
(lp2659
I14991
asg6
(lp2660
I2354
aI2
aI3088
aI2550
aI1127
asg8
I1533
sa(dp2661
g2
(lp2662
I15004
aI15005
asg4
(lp2663
I15003
asg6
(lp2664
I16865
aI2
aI9302
aI17805
aI128
asg8
I1536
sa(dp2665
g2
(lp2666
I15026
aI15027
aI15028
asg4
(lp2667
I15025
asg6
(lp2668
I17253
aI2
aI14
aI362
aI42
aI847
aI17777
aI13907
asg8
I1538
sa(dp2669
g2
(lp2670
I15030
aI15031
aI15032
aI15033
aI15034
aI15035
aI15036
aI15037
aI15038
asg4
(lp2671
I15029
asg6
(lp2672
I1488
aI2
aI830
aI113
aI10082
aI1720
asg8
I1539
sa(dp2673
g2
(lp2674
I15048
aI15049
aI15050
aI15051
asg4
(lp2675
I15047
asg6
(lp2676
I14
aI16970
aI54
aI1642
aI10639
aI25
aI3443
aI54
aI3444
aI2
aI14
aI15720
aI2763
aI480
aI10
aI7
aI7438
asg8
I1541
sa(dp2677
g2
(lp2678
I15052
asg4
(lp2679
I15053
asg6
(lp2680
I1488
aI2
aI24583
aI24584
asg8
I1542
sa(dp2681
g2
(lp2682
I15054
aI15056
aI15057
aI15058
asg4
(lp2683
I15055
asg6
(lp2684
I1488
aI2
aI2523
aI531
aI471
asg8
I1543
sa(dp2685
g2
(lp2686
I15107
aI15108
aI15109
aI15110
asg4
(lp2687
I15106
asg6
(lp2688
I17546
aI15487
aI28
aI16686
aI28
aI15490
aI15491
aI2
aI2736
aI3037
aI22
aI1555
asg8
I1548
sa(dp2689
g2
(lp2690
I15111
aI15113
aI15114
aI15115
aI15116
aI15117
aI15118
aI15119
aI15120
aI15121
aI15122
aI15123
asg4
(lp2691
I15112
asg6
(lp2692
I16225
aI16226
aI16227
aI42
aI16228
aI15694
aI16229
aI2
aI498
aI1867
aI1790
aI342
aI2405
asg8
I1549
sa(dp2693
g2
(lp2694
I15156
aI15157
aI15158
aI15159
asg4
(lp2695
I15155
asg6
(lp2696
I1488
aI2
aI14
aI17921
aI4700
aI247
aI515
aI133
asg8
I1553
sa(dp2697
g2
(lp2698
I15193
aI15194
aI15195
aI15196
aI15197
aI15198
aI15199
aI15200
aI15201
aI15202
aI15203
aI15204
aI15205
aI15206
aI15207
aI15208
aI15209
aI15210
aI15211
aI15212
aI15213
aI15214
aI15215
asg4
(lp2699
I15192
asg6
(lp2700
I2354
aI2
aI4452
aI2440
aI133
aI226
asg8
I1558
sa(dp2701
g2
(lp2702
I15217
aI15218
aI15219
aI15220
aI15221
aI15222
aI15223
asg4
(lp2703
I15216
asg6
(lp2704
I14
aI16093
aI16497
aI838
aI2
aI24719
aI1103
aI128
asg8
I1559
sa(dp2705
g2
(lp2706
I15224
aI15226
aI15227
aI15228
aI15229
aI15230
aI15231
asg4
(lp2707
I15225
asg6
(lp2708
I1488
aI2
aI2696
aI1635
asg8
I1560
sa(dp2709
g2
(lp2710
I15232
aI15233
aI15234
aI15236
aI15237
aI15238
aI15239
aI15240
aI15241
aI15242
aI15243
aI15244
aI15245
asg4
(lp2711
I15235
asg6
(lp2712
I14
aI11861
aI25
aI14
aI10511
aI10508
aI22
aI14
aI17268
aI2
aI14
aI6118
aI668
aI22
aI1452
asg8
I1561
sa(dp2713
g2
(lp2714
I15247
aI15248
aI15249
aI15250
aI15251
aI15252
aI15253
aI15254
aI15255
aI15257
aI15258
aI15259
aI15260
asg4
(lp2715
I15246
aI15256
asg6
(lp2716
I3474
aI2
aI23203
aI1455
aI3492
asg8
I1562
sa(dp2717
g2
(lp2718
I15261
aI15262
aI15263
aI15264
aI15265
aI15266
aI15267
aI15269
aI15270
aI15271
aI15272
aI15273
aI15274
aI15275
asg4
(lp2719
I15268
asg6
(lp2720
I15858
aI2
aI7
aI9305
aI3134
aI1435
aI90
aI5
aI22
aI882
aI42
aI15842
aI22
aI2166
aI2
aI14
aI127
aI22
aI24761
aI22
aI1579
aI1038
asg8
I1563
sa(dp2721
g2
(lp2722
I15276
aI15277
aI15278
aI15279
aI15280
aI15281
aI15282
aI15283
aI15284
aI15286
aI15287
aI15288
aI15289
aI15290
aI15291
aI15292
asg4
(lp2723
I15285
asg6
(lp2724
I1428
aI2
aI6482
aI6483
aI210
aI1183
asg8
I1564
sa(dp2725
g2
(lp2726
I15318
asg4
(lp2727
I15317
asg6
(lp2728
I2736
aI16826
aI2
aI7340
aI13631
asg8
I1567
sa(dp2729
g2
(lp2730
I15320
aI15321
aI15323
aI15324
asg4
(lp2731
I15319
aI15322
asg6
(lp2732
I1488
aI2
aI16940
aI4451
aI42
aI463
aI621
asg8
I1568
sa(dp2733
g2
(lp2734
I15340
aI15341
aI15342
aI15343
aI15344
aI15345
aI15346
aI15347
aI15348
aI15349
aI15350
asg4
(lp2735
I15339
asg6
(lp2736
I15854
aI15855
aI2
aI2
aI14
aI1431
aI24834
asg8
I1570
sa(dp2737
g2
(lp2738
I15351
aI15354
aI15355
aI15356
aI15357
aI15358
aI15359
aI15360
aI15361
aI15362
aI15363
aI15364
aI15365
aI15366
aI15367
aI15368
aI15369
aI15370
asg4
(lp2739
I15352
aI15353
asg6
(lp2740
I1488
aI2
aI9669
aI7
aI173
asg8
I1571
sa(dp2741
g2
(lp2742
I15382
aI15383
aI15384
aI15385
aI15386
aI15387
aI15388
aI15389
aI15390
aI15391
aI15392
aI15393
aI15394
aI15395
asg4
(lp2743
I15381
asg6
(lp2744
I1488
aI2
aI14
aI4199
aI1378
aI25
aI2429
aI13
asg8
I1574
sa(dp2745
g2
(lp2746
I15397
aI15398
aI15399
aI15400
aI15401
aI15402
aI15403
aI15404
aI15405
aI15406
aI15407
aI15408
aI15409
aI15410
asg4
(lp2747
I15396
asg6
(lp2748
I16540
aI3907
aI215
aI1545
aI16152
aI2548
aI2
aI57
aI3174
aI1127
asg8
I1575
sa(dp2749
g2
(lp2750
I15411
aI15414
aI15415
aI15416
asg4
(lp2751
I15412
aI15413
asg6
(lp2752
I1488
aI2
aI201
aI1823
aI3033
aI203
aI6
asg8
I1576
sa(dp2753
g2
(lp2754
I15433
aI15434
aI15435
aI15436
aI15437
aI15438
aI15439
aI15440
aI15441
asg4
(lp2755
I15432
asg6
(lp2756
I16846
aI16847
aI15487
aI28
aI16848
aI28
aI15490
aI15491
aI2
aI24915
aI3820
aI7716
aI24916
aI4376
asg8
I1579
sa(dp2757
g2
(lp2758
I15442
aI15444
aI15445
aI15446
asg4
(lp2759
I15443
asg6
(lp2760
I1488
aI2
aI14
aI161
aI14
aI191
aI4811
aI3136
aI14135
asg8
I1580
sa(dp2761
g2
(lp2762
I15448
aI15449
aI15450
aI15451
aI15452
aI15453
aI15454
aI15455
aI15456
aI15457
aI15458
aI15459
aI15460
aI15461
aI15462
aI15463
aI15464
aI15465
aI15466
aI15467
aI15468
aI15469
aI15470
aI15471
aI15472
aI15473
aI15474
aI15475
aI15476
asg4
(lp2763
I15447
asg6
(lp2764
I309
aI8704
aI2
aI1440
aI2440
aI226
asg8
I1581
sa(dp2765
g2
(lp2766
I15493
aI15495
aI15496
aI15497
aI15498
aI15499
aI15500
aI15501
aI15502
aI15503
aI15504
aI15505
aI15506
aI15507
aI15508
aI15509
aI15510
aI15511
aI15512
aI15513
aI15514
aI15515
aI15516
asg4
(lp2767
I15494
asg6
(lp2768
I16822
aI16823
aI2
aI14
aI817
aI1088
aI3692
aI6
asg8
I1583
sa(dp2769
g2
(lp2770
I15554
aI15555
aI15557
aI15559
aI15560
aI15561
aI15562
aI15563
aI15564
aI15565
aI15566
aI15567
aI15568
asg4
(lp2771
I15556
aI15558
asg6
(lp2772
I1488
aI2
aI22
aI8268
asg8
I1587
sa(dp2773
g2
(lp2774
I15570
aI15571
aI15572
aI15573
aI15574
aI15575
aI15576
aI15577
asg4
(lp2775
I15569
asg6
(lp2776
I1488
aI2
aI7520
aI25012
aI10978
asg8
I1588
sa(dp2777
g2
(lp2778
sg4
(lp2779
I15608
asg6
(lp2780
I18660
aI18661
aI18662
aI2
aI14
aI1816
aI22
aI14
aI12805
aI18660
aI18661
aI18662
aI2
aI12019
asg8
I1592
sa(dp2781
g2
(lp2782
I15616
aI15617
aI15618
aI15619
aI15620
asg4
(lp2783
I15614
aI15615
asg6
(lp2784
I1488
aI2
aI2983
aI2835
aI25061
asg8
I1594
sa(dp2785
g2
(lp2786
I15622
aI15623
aI15624
aI15625
aI15626
aI15627
aI15628
aI15629
aI15630
aI15631
aI15632
aI15633
aI15634
aI15635
aI15636
asg4
(lp2787
I15621
asg6
(lp2788
I22
aI14
aI1421
aI54
aI3375
aI547
aI2747
aI2
aI3576
aI14476
aI1157
asg8
I1595
sa(dp2789
g2
(lp2790
I15639
asg4
(lp2791
I15637
aI15638
asg6
(lp2792
I1488
aI2
aI2982
aI25079
asg8
I1596
sa(dp2793
g2
(lp2794
I15642
aI15643
aI15644
aI15645
aI15646
aI15647
aI15648
aI15649
aI15650
aI15651
aI15652
aI15653
aI15654
aI15655
aI15657
aI15658
aI15659
asg4
(lp2795
I15656
asg6
(lp2796
I16766
aI2
aI14
aI388
aI1408
aI25
aI12188
aI945
asg8
I1598
sa(dp2797
g2
(lp2798
I15660
aI15661
aI15662
aI15663
aI15665
aI15666
aI15667
aI15668
aI15669
aI15670
aI15671
asg4
(lp2799
I15664
asg6
(lp2800
I1488
aI2
aI12850
aI12879
aI4384
asg8
I1599
sa(dp2801
g2
(lp2802
I15679
aI15680
aI15681
aI15682
aI15683
aI15684
aI15685
aI15686
aI15687
asg4
(lp2803
I15678
asg6
(lp2804
I17604
aI17605
aI64
aI1157
aI16346
aI1685
aI28
aI3317
aI66
aI2
aI7
aI870
aI1877
aI28
aI1160
aI28
aI17606
aI28
aI1431
aI42
aI5043
aI17607
aI970
aI515
aI133
aI7
aI3034
aI460
aI25
aI14
aI17608
aI1164
aI13102
aI1572
aI705
aI17609
aI17610
aI17611
aI64
aI17612
aI66
aI128
aI1844
aI34
aI1546
aI2
aI14
aI191
aI1174
aI22
aI14
aI535
asg8
I1601
sa(dp2805
g2
(lp2806
I15694
aI15696
aI15697
aI15698
aI15699
aI15700
aI15701
aI15702
asg4
(lp2807
I15692
aI15693
aI15695
asg6
(lp2808
I480
aI22
aI14
aI16972
aI16876
aI87
aI14
aI7710
aI25
aI14
aI16973
aI15485
aI42
aI14
aI16972
aI15485
aI22
aI414
aI16974
aI42
aI16975
aI2213
aI28
aI1204
aI1662
aI25
aI16976
aI42
aI2736
aI25
aI16977
aI2
aI12855
aI880
asg8
I1603
sa(dp2809
g2
(lp2810
I15704
aI15705
aI15706
aI15707
aI15708
aI15709
asg4
(lp2811
I15703
asg6
(lp2812
I1488
aI2
aI14
aI3809
aI614
aI19940
aI42
aI4081
aI11372
asg8
I1604
sa(dp2813
g2
(lp2814
I15711
asg4
(lp2815
I15710
asg6
(lp2816
I17250
aI2
aI25127
aI2735
aI8602
asg8
I1605
sa(dp2817
g2
(lp2818
I15725
aI15726
aI15727
aI15728
aI15729
aI15730
aI15731
aI15732
aI15733
aI15734
aI15735
aI15736
asg4
(lp2819
I15724
asg6
(lp2820
I1488
aI2
aI14235
aI14
aI782
asg8
I1607
sa(dp2821
g2
(lp2822
I15768
aI15770
aI15771
aI15772
aI15773
aI15774
aI15775
aI15776
aI15777
aI15778
aI15779
aI15780
asg4
(lp2823
I15769
asg6
(lp2824
I16152
aI658
aI28
aI5814
aI2
aI25127
aI8181
asg8
I1612
sa(dp2825
g2
(lp2826
I15793
aI15795
aI15796
aI15797
aI15798
aI15799
aI15800
aI15801
aI15802
aI15803
aI15804
aI15805
asg4
(lp2827
I15794
asg6
(lp2828
I17382
aI17383
aI2
aI10
aI14
aI811
aI915
aI13
aI1726
asg8
I1615
sa(dp2829
g2
(lp2830
I15807
asg4
(lp2831
I15806
asg6
(lp2832
I15825
aI699
aI28
aI1213
aI2
aI7228
aI25223
aI1157
asg8
I1616
sa(dp2833
g2
(lp2834
I15821
aI15823
aI15824
aI15825
aI15826
aI15827
aI15828
aI15829
aI15830
asg4
(lp2835
I15822
asg6
(lp2836
I15702
aI15703
aI2
aI25255
aI7328
aI1237
asg8
I1619
sa(dp2837
g2
(lp2838
I15856
aI15857
aI15858
aI15859
aI15862
aI15863
aI15864
asg4
(lp2839
I15860
aI15861
asg6
(lp2840
I1488
aI2
aI14
aI661
aI25
aI14
aI18691
aI9025
asg8
I1622
sa(dp2841
g2
(lp2842
I15880
aI15881
aI15882
aI15883
aI15884
aI15885
aI15886
aI15887
aI15888
asg4
(lp2843
I15879
asg6
(lp2844
I1488
aI2
aI3841
aI700
aI2975
aI2
aI7
aI327
aI25
aI6
asg8
I1624
sa(dp2845
g2
(lp2846
I15930
aI15931
aI15932
aI15933
aI15934
aI15935
aI15936
aI15937
aI15938
aI15939
aI15940
aI15941
aI15942
aI15943
aI15944
asg4
(lp2847
I15929
asg6
(lp2848
I11415
aI271
aI34
aI8676
aI37
aI2
aI1658
aI1277
aI28
aI17172
aI28
aI1037
aI7
aI855
aI54
aI477
aI261
aI133
aI7
aI73
aI28
aI3331
aI28
aI352
aI54
aI1813
aI133
aI7
aI366
aI2
aI14
aI3300
aI87
aI24542
aI171
asg8
I1629
sa(dp2849
g2
(lp2850
I15963
aI15964
aI15965
aI15967
asg4
(lp2851
I15966
asg6
(lp2852
I1488
aI2
aI14
aI523
aI25
aI25378
aI11583
aI173
aI940
asg8
I1632
sa(dp2853
g2
(lp2854
I15980
aI15981
aI15982
aI15984
aI15985
aI15986
aI15987
asg4
(lp2855
I15983
asg6
(lp2856
I1488
aI2
aI3420
aI1420
asg8
I1634
sa(dp2857
g2
(lp2858
I15989
aI15990
aI15991
aI15992
aI15993
aI15994
aI15995
asg4
(lp2859
I15988
asg6
(lp2860
I18107
aI18108
aI18109
aI2
aI14
aI1192
aI25
aI1549
aI2511
asg8
I1635
sa(dp2861
g2
(lp2862
I16029
aI16030
aI16031
aI16032
aI16033
aI16034
aI16035
aI16036
aI16037
asg4
(lp2863
I16028
asg6
(lp2864
I1488
aI2
aI25442
aI25443
aI109
aI3657
aI191
aI161
aI6
asg8
I1641
sa(dp2865
g2
(lp2866
I16038
aI16040
asg4
(lp2867
I16039
asg6
(lp2868
I1488
aI2
aI25455
aI6436
aI89
asg8
I1642
sa(dp2869
g2
(lp2870
I16099
aI16101
aI16102
aI16103
aI16104
aI16105
asg4
(lp2871
I16100
asg6
(lp2872
I1488
aI2
aI14
aI1490
aI25
aI14
aI1545
asg8
I1647
sa(dp2873
g2
(lp2874
I16109
aI16110
aI16111
aI16112
aI16113
asg4
(lp2875
I16108
asg6
(lp2876
I14
aI7720
aI4568
aI25
aI16675
aI22
aI14
aI4303
aI7720
aI16676
aI96
aI16051
aI42
aI1412
aI1967
aI770
aI14
aI16488
aI16677
aI1661
aI22
aI14
aI16678
aI42
aI2
aI14
aI2190
aI3503
aI2763
aI22
aI16679
aI2
aI25518
aI4824
aI128
asg8
I1649
sa(dp2877
g2
(lp2878
I16116
asg4
(lp2879
I16114
aI16115
asg6
(lp2880
I1488
aI2
aI14
aI891
aI173
aI542
asg8
I1650
sa(dp2881
g2
(lp2882
I16124
aI16125
asg4
(lp2883
I16126
asg6
(lp2884
I1488
aI2
aI14
aI25551
aI25
aI10527
aI2483
asg8
I1652
sa(dp2885
g2
(lp2886
I16157
aI16158
aI16159
aI16160
aI16161
aI16162
aI16163
aI16164
aI16165
aI16166
aI16167
aI16168
aI16169
aI16170
asg4
(lp2887
I16156
asg6
(lp2888
I1488
aI2
aI2314
aI2448
asg8
I1657
sa(dp2889
g2
(lp2890
I16176
aI16177
aI16178
aI16179
aI16180
aI16181
aI16182
asg4
(lp2891
I16183
asg6
(lp2892
I1488
aI2
aI6392
aI25610
aI122
aI2071
asg8
I1659
sa(dp2893
g2
(lp2894
I16185
aI16186
aI16187
aI16188
aI16189
aI16190
aI16191
aI16192
aI16193
aI16194
aI16195
asg4
(lp2895
I16184
asg6
(lp2896
I16103
aI16104
aI2
aI1116
aI25624
aI6882
aI13
asg8
I1660
sa(dp2897
g2
(lp2898
I16272
aI16274
aI16275
aI16276
asg4
(lp2899
I16271
aI16273
asg6
(lp2900
I1488
aI2
aI14
aI1035
aI25714
aI25
aI14
aI11818
aI6
asg8
I1669
sa(dp2901
g2
(lp2902
I16288
aI16290
aI16291
aI16292
aI16293
asg4
(lp2903
I16289
asg6
(lp2904
I1488
aI2
aI25733
aI354
aI25
asg8
I1671
sa(dp2905
g2
(lp2906
I16323
aI16324
asg4
(lp2907
I16322
asg6
(lp2908
I2808
aI2
aI25756
aI480
aI25757
asg8
I1674
sa(dp2909
g2
(lp2910
I16326
aI16327
aI16328
aI16329
aI16330
aI16331
aI16332
aI16333
aI16334
aI16335
aI16336
asg4
(lp2911
I16325
asg6
(lp2912
I1488
aI2
aI25763
aI22
aI25764
aI3713
asg8
I1675
sa(dp2913
g2
(lp2914
I16337
asg4
(lp2915
I16338
asg6
(lp2916
I17095
aI17096
aI2
aI14
aI801
aI2428
aI25
aI9867
asg8
I1676
sa(dp2917
g2
(lp2918
I16352
aI16353
aI16354
aI16355
asg4
(lp2919
I16351
asg6
(lp2920
I15942
aI64
aI190
aI15943
aI190
aI15944
aI82
aI15945
aI190
aI15946
aI82
aI15947
aI28
aI15943
aI190
aI201
aI14500
aI190
aI3909
aI190
aI161
aI203
aI66
aI2
aI153
aI25
aI14
aI1221
aI25
aI15948
aI22
aI14
aI15669
aI15670
aI133
aI467
aI133
aI22
aI4125
aI5651
aI2
aI2938
aI3341
aI25795
asg8
I1679
sa(dp2921
g2
(lp2922
sg4
(lp2923
I16356
aI16357
asg6
(lp2924
I1488
aI2
aI19324
aI19325
aI2626
asg8
I1680
sa(dp2925
g2
(lp2926
I16359
aI16360
aI16361
aI16362
aI16363
aI16364
aI16365
aI16366
aI16367
aI16368
aI16369
aI16370
aI16371
asg4
(lp2927
I16358
asg6
(lp2928
I7
aI1929
aI10044
aI22
aI14
aI1241
aI17555
aI28
aI5866
aI173
aI75
aI5862
aI2
aI25801
aI2429
asg8
I1681
sa(dp2929
g2
(lp2930
I16375
aI16377
aI16378
asg4
(lp2931
I16376
asg6
(lp2932
I1488
aI2
aI14
aI635
aI4285
aI27
asg8
I1683
sa(dp2933
g2
(lp2934
I16380
aI16381
aI16382
aI16383
aI16384
aI16385
aI16386
aI16387
aI16388
aI16389
asg4
(lp2935
I16379
asg6
(lp2936
I1488
aI2
aI25830
aI190
aI3657
aI3301
asg8
I1684
sa(dp2937
g2
(lp2938
I16464
aI16466
aI16467
aI16468
aI16469
aI16470
aI16471
asg4
(lp2939
I16465
asg6
(lp2940
I1488
aI2
aI14
aI4446
aI25
aI7
aI7434
aI6599
asg8
I1693
sa(dp2941
g2
(lp2942
I16489
aI16490
aI16491
asg4
(lp2943
I16488
asg6
(lp2944
I1488
aI2
aI213
aI5757
aI7561
aI1035
asg8
I1695
sa(dp2945
g2
(lp2946
I16493
aI16494
aI16495
aI16496
aI16497
aI16498
aI16499
aI16500
asg4
(lp2947
I16492
asg6
(lp2948
I1488
aI2
aI19734
aI33
aI173
asg8
I1696
sa(dp2949
g2
(lp2950
I16502
aI16503
aI16504
aI16505
aI16506
aI16507
aI16508
aI16509
aI16510
aI16511
aI16512
aI16513
aI16514
aI16515
aI16516
aI16517
aI16518
aI16519
aI16520
aI16521
asg4
(lp2951
I16501
asg6
(lp2952
I14
aI10069
aI547
aI2
aI8405
aI1157
asg8
I1697
sa(dp2953
g2
(lp2954
I16522
aI16523
aI16525
aI16526
aI16527
aI16528
asg4
(lp2955
I16524
asg6
(lp2956
I1488
aI2
aI19733
aI25932
asg8
I1698
sa(dp2957
g2
(lp2958
I16571
aI16572
aI16573
aI16574
aI16575
aI16576
aI16577
aI16578
aI16579
aI16580
aI16581
aI16582
asg4
(lp2959
I16570
asg6
(lp2960
I1488
aI2
aI25973
aI354
aI25
asg8
I1701
sa(dp2961
g2
(lp2962
I16583
aI16584
aI16585
aI16586
aI16587
aI16588
aI16589
asg4
(lp2963
I16590
asg6
(lp2964
I16093
aI16497
aI16685
aI17549
aI17550
aI17551
aI2
aI25989
aI14
aI25990
aI2071
asg8
I1702
sa(dp2965
g2
(lp2966
I16591
aI16593
aI16594
aI16595
aI16596
aI16597
aI16598
aI16599
aI16600
aI16601
asg4
(lp2967
I16592
asg6
(lp2968
I1488
aI2
aI26000
aI109
aI1011
aI1431
aI109
aI161
asg8
I1703
sa(dp2969
g2
(lp2970
I16603
aI16604
aI16605
aI16606
asg4
(lp2971
I16602
asg6
(lp2972
I3941
aI6621
aI2
aI26014
aI22
aI1663
asg8
I1704
sa(dp2973
g2
(lp2974
I16649
aI16650
asg4
(lp2975
I16648
asg6
(lp2976
I1488
aI2
aI22
aI14
aI9713
aI25
aI14
aI233
asg8
I1709
sa(dp2977
g2
(lp2978
I16652
aI16653
aI16654
aI16655
aI16656
aI16657
aI16658
aI16659
aI16660
aI16661
aI16662
aI16663
aI16664
asg4
(lp2979
I16651
asg6
(lp2980
I17029
aI54
aI3375
aI547
aI2747
aI2
aI14
aI5043
aI923
asg8
I1710
sa(dp2981
g2
(lp2982
I16674
aI16675
asg4
(lp2983
I16676
asg6
(lp2984
I194
aI1208
aI6318
aI4721
aI2777
aI25
aI14
aI17261
aI15485
aI28
aI4947
aI34
aI14
aI19743
aI2867
aI25
aI19744
aI28
aI19079
aI34
aI14
aI5128
aI60
aI14
aI19745
aI19746
aI109
aI1208
aI6318
aI3076
aI28
aI42
aI19747
aI34
aI14
aI16486
aI15940
aI15485
aI2
aI975
aI2373
aI9282
asg8
I1712
sa(dp2985
g2
(lp2986
I16677
aI16678
aI16679
aI16681
aI16682
aI16683
aI16684
aI16685
aI16686
aI16687
aI16688
aI16689
aI16690
aI16691
aI16692
aI16693
aI16694
aI16695
aI16696
aI16697
aI16698
aI16699
asg4
(lp2987
I16680
asg6
(lp2988
I17029
aI54
aI3375
aI547
aI2747
aI2
aI4004
aI5427
aI26049
aI2440
aI6
asg8
I1713
sa(dp2989
g2
(lp2990
I16712
aI16713
aI16714
aI16715
aI16716
aI16717
aI16718
aI16719
aI16720
aI16721
aI16722
aI16723
aI16724
aI16725
aI16726
aI16727
aI16729
aI16730
asg4
(lp2991
I16728
asg6
(lp2992
I15805
aI17213
aI2
aI498
aI2666
aI109
aI1247
asg8
I1715
sa(dp2993
g2
(lp2994
I16731
aI16733
aI16734
aI16735
aI16736
aI16737
aI16738
aI16739
aI16740
aI16741
aI16742
aI16743
asg4
(lp2995
I16732
asg6
(lp2996
I18572
aI18573
aI42
aI18574
aI15901
aI2
aI10
aI14
aI915
aI3184
aI1726
asg8
I1716
sa(dp2997
g2
(lp2998
I16744
aI16745
aI16747
aI16748
aI16749
aI16750
aI16751
aI16752
aI16753
aI16754
aI16755
aI16756
aI16757
aI16758
aI16759
aI16760
asg4
(lp2999
I16746
asg6
(lp3000
I1488
aI2
aI660
aI838
aI849
asg8
I1717
sa(dp3001
g2
(lp3002
I16765
aI16766
asg4
(lp3003
I16764
asg6
(lp3004
I1861
aI16122
aI5198
aI2
aI5786
aI128
aI14429
asg8
I1719
sa(dp3005
g2
(lp3006
I16820
aI16822
aI16823
aI16824
aI16825
aI16826
aI16827
asg4
(lp3007
I16821
asg6
(lp3008
I1488
aI2
aI14
aI2197
aI13770
aI2452
asg8
I1724
sa(dp3009
g2
(lp3010
I16828
aI16829
aI16830
aI16831
aI16832
aI16833
aI16834
aI16835
aI16836
aI16837
aI16838
aI16839
aI16840
aI16841
aI16842
aI16843
aI16844
aI16845
aI16846
aI16847
asg4
(lp3011
I16848
asg6
(lp3012
I1488
aI2
aI5334
aI5335
aI7702
asg8
I1725
sa(dp3013
g2
(lp3014
I16852
aI16853
aI16854
aI16855
asg4
(lp3015
I16851
asg6
(lp3016
I20259
aI2
aI10854
aI22
aI14
aI2619
asg8
I1727
sa(dp3017
g2
(lp3018
I16907
aI16908
aI16909
aI16910
aI16912
aI16913
asg4
(lp3019
I16911
asg6
(lp3020
I2777
aI25
aI14
aI17261
aI15485
aI28
aI4947
aI34
aI14
aI19743
aI2867
aI25
aI19744
aI28
aI19079
aI34
aI14
aI5128
aI60
aI14
aI19745
aI19746
aI109
aI1208
aI6318
aI3076
aI28
aI42
aI19747
aI34
aI14
aI16486
aI15940
aI15485
aI2
aI14
aI513
aI19493
aI22
aI14
aI2619
asg8
I1733
sa(dp3021
g2
(lp3022
I16942
aI16943
aI16944
asg4
(lp3023
I16941
asg6
(lp3024
I1488
aI2
aI26244
aI25962
asg8
I1736
sa(dp3025
g2
(lp3026
I16968
aI16969
aI16970
asg4
(lp3027
I16967
asg6
(lp3028
I15805
aI16349
aI201
aI17322
aI17323
aI203
aI17324
aI2
aI7
aI8097
aI126
aI127
aI22
aI14
aI17325
aI705
aI4545
aI42
aI14
aI16685
aI28
aI132
aI113
aI16067
aI17326
aI2
aI14
aI9312
aI2428
aI25
aI25757
asg8
I1740
sa(dp3029
g2
(lp3030
I16971
aI16973
aI16974
aI16975
asg4
(lp3031
I16972
asg6
(lp3032
I15750
aI15751
aI2
aI26277
aI3978
aI161
aI884
asg8
I1741
sa(dp3033
g2
(lp3034
I17018
aI17019
aI17020
aI17021
aI17022
aI17023
aI17025
aI17026
aI17027
aI17028
aI17029
aI17030
aI17031
aI17032
asg4
(lp3035
I17024
asg6
(lp3036
I20675
aI20676
aI22
aI15525
aI28
aI15524
aI2
aI9507
aI26307
aI1157
aI1416
aI6
asg8
I1745
sa(dp3037
g2
(lp3038
I17060
aI17061
aI17062
aI17063
aI17064
aI17065
aI17066
aI17067
aI17068
asg4
(lp3039
I17058
aI17059
asg6
(lp3040
I779
aI25
aI14
aI476
aI160
aI128
aI14
aI16648
aI2
aI26340
aI26341
aI87
asg8
I1748
sa(dp3041
g2
(lp3042
I17069
asg4
(lp3043
I17070
asg6
(lp3044
I1488
aI2
aI14
aI2122
aI25
aI14
aI5728
aI1296
aI821
asg8
I1749
sa(dp3045
g2
(lp3046
I17083
aI17084
aI17085
aI17086
aI17087
asg4
(lp3047
I17088
asg6
(lp3048
I1488
aI2
aI342
aI60
aI15236
aI26367
asg8
I1752
sa(dp3049
g2
(lp3050
I17089
aI17091
asg4
(lp3051
I17090
asg6
(lp3052
I1488
aI2
aI37
aI13386
aI10
aI14
aI26372
aI25
aI2775
aI647
aI12741
asg8
I1753
sa(dp3053
g2
(lp3054
I17114
asg4
(lp3055
I17113
asg6
(lp3056
I7
aI1378
aI6041
aI51
aI14
aI15484
aI15485
aI22
aI14
aI2774
aI76
aI25
aI15486
aI15487
aI28
aI480
aI22
aI2776
aI15488
aI28
aI22
aI14
aI15489
aI15490
aI15491
aI2
aI1947
aI3202
aI535
aI875
asg8
I1758
sa(dp3057
g2
(lp3058
I17151
aI17152
aI17153
asg4
(lp3059
I17149
aI17150
asg6
(lp3060
I1488
aI2
aI1017
aI1943
asg8
I1762
sa(dp3061
g2
(lp3062
I17178
aI17179
aI17181
aI17182
aI17183
aI17184
aI17185
aI17186
aI17187
aI17188
aI17189
aI17190
aI17191
aI17192
aI17193
asg4
(lp3063
I17180
asg6
(lp3064
I3975
aI2
aI14
aI191
aI6118
aI668
asg8
I1768
sa(dp3065
g2
(lp3066
I17194
aI17196
aI17197
aI17198
aI17199
aI17200
aI17201
aI17202
aI17203
aI17204
aI17205
asg4
(lp3067
I17195
asg6
(lp3068
I1488
aI2
aI14
aI2260
aI25
aI23652
asg8
I1769
sa(dp3069
g2
(lp3070
I17206
aI17208
aI17209
aI17210
aI17211
aI17212
aI17213
aI17214
aI17215
aI17216
aI17217
aI17218
aI17219
aI17220
aI17221
aI17222
aI17223
aI17224
aI17225
aI17226
aI17227
aI17228
aI17229
asg4
(lp3071
I17207
asg6
(lp3072
I1488
aI2
aI14
aI1846
aI772
aI25
aI535
aI6
asg8
I1770
sa(dp3073
g2
(lp3074
I17230
aI17232
aI17233
aI17234
aI17235
asg4
(lp3075
I17231
asg6
(lp3076
I1488
aI2
aI18544
aI1683
aI4999
asg8
I1771
sa(dp3077
g2
(lp3078
I17237
aI17238
aI17239
aI17240
aI17241
aI17242
aI17243
aI17244
aI17245
aI17246
aI17247
aI17248
aI17249
aI17250
aI17251
aI17252
aI17253
asg4
(lp3079
I17236
asg6
(lp3080
I7
aI11956
aI3071
aI480
aI22
aI14
aI16822
aI16823
aI2222
aI528
aI25
aI2267
aI16686
aI28
aI15490
aI15491
aI28
aI361
aI113
aI14
aI2867
aI25
aI14
aI19440
aI698
aI53
aI57
aI2
aI26474
aI28
aI669
asg8
I1772
sa(dp3081
g2
(lp3082
I17278
aI17279
aI17280
aI17281
aI17282
aI17283
aI17284
asg4
(lp3083
I17277
asg6
(lp3084
I1488
aI2
aI26523
aI7422
aI6
asg8
I1777
sa(dp3085
g2
(lp3086
I17285
aI17287
aI17288
aI17289
aI17290
aI17291
aI17292
aI17293
aI17294
aI17295
aI17296
aI17297
aI17298
asg4
(lp3087
I17286
asg6
(lp3088
I1488
aI2
aI20
aI26524
aI22
aI5799
asg8
I1778
sa(dp3089
g2
(lp3090
I17299
aI17301
aI17302
aI17303
aI17304
aI17305
aI17306
aI17307
aI17308
aI17309
asg4
(lp3091
I17300
asg6
(lp3092
I1488
aI2
aI7
aI7281
aI2107
aI7280
aI10720
asg8
I1779
sa(dp3093
g2
(lp3094
I17353
aI17354
aI17355
aI17356
aI17357
aI17358
aI17359
aI17360
aI17361
aI17362
aI17363
aI17364
aI17365
aI17367
aI17368
aI17369
aI17370
aI17371
asg4
(lp3095
I17366
asg6
(lp3096
I69
aI13378
aI2
aI14
aI26583
aI1393
asg8
I1784
sa(dp3097
g2
(lp3098
sg4
(lp3099
I17374
asg6
(lp3100
I160
aI25
aI16686
aI28
aI18057
aI28
aI17501
aI28
aI16848
aI28
aI42
aI18054
aI2
aI14
aI15063
aI7541
asg8
I1786
sa(dp3101
g2
(lp3102
I17375
aI17376
aI17378
aI17379
aI17380
aI17381
aI17382
asg4
(lp3103
I17377
asg6
(lp3104
I1488
aI2
aI14
aI5061
aI2304
aI1712
aI777
aI22
aI2778
asg8
I1787
sa(dp3105
g2
(lp3106
I17402
aI17403
aI17404
aI17405
aI17407
aI17408
aI17409
aI17410
aI17411
aI17412
aI17413
aI17414
aI17415
aI17416
aI17417
asg4
(lp3107
I17406
asg6
(lp3108
I468
aI2
aI26635
aI254
asg8
I1790
sa(dp3109
g2
(lp3110
I17418
aI17419
aI17420
aI17421
aI17422
aI17423
aI17425
aI17426
aI17427
asg4
(lp3111
I17424
asg6
(lp3112
I309
aI8704
aI2
aI17234
aI109
aI18384
aI5695
asg8
I1791
sa(dp3113
g2
(lp3114
I17443
aI17444
aI17445
aI17446
aI17447
aI17448
aI17449
aI17450
aI17451
asg4
(lp3115
I17442
asg6
(lp3116
I1488
aI2
aI25976
aI354
aI128
asg8
I1794
sa(dp3117
g2
(lp3118
I17517
asg4
(lp3119
I17515
aI17516
asg6
(lp3120
I528
aI69
aI16484
aI16485
aI42
aI14
aI16486
aI15940
aI15485
aI22
aI16487
aI2
aI6711
aI42
aI6710
aI28
aI58
asg8
I1803
sa(dp3121
g2
(lp3122
I17603
aI17604
aI17605
aI17606
aI17607
aI17609
aI17610
aI17611
aI17612
aI17613
aI17614
aI17615
aI17616
aI17617
aI17618
asg4
(lp3123
I17608
asg6
(lp3124
I1488
aI2
aI26852
aI364
asg8
I1814
sa(dp3125
g2
(lp3126
I17620
asg4
(lp3127
I17619
asg6
(lp3128
I8406
aI2
aI9604
aI26866
aI1157
asg8
I1815
sa(dp3129
g2
(lp3130
I17706
aI17708
aI17709
aI17710
asg4
(lp3131
I17707
asg6
(lp3132
I16060
aI18986
aI28
aI16808
aI2
aI14
aI4137
aI1513
aI121
aI354
asg8
I1822
sa(dp3133
g2
(lp3134
I17715
aI17716
aI17717
aI17718
aI17719
aI17720
aI17721
aI17722
aI17723
aI17724
aI17725
aI17726
aI17727
aI17728
asg4
(lp3135
I17714
asg6
(lp3136
I16120
aI2
aI22
aI14
aI855
aI6790
aI1039
aI699
asg8
I1824
sa(dp3137
g2
(lp3138
I17730
aI17731
aI17732
aI17733
aI17734
aI17735
aI17736
aI17737
aI17738
aI17739
aI17740
asg4
(lp3139
I17729
asg6
(lp3140
I1488
aI2
aI27010
aI425
aI8196
aI184
asg8
I1825
sa(dp3141
g2
(lp3142
I17753
aI17754
aI17755
aI17756
aI17757
aI17758
aI17759
asg4
(lp3143
I17752
asg6
(lp3144
I966
aI2
aI281
aI192
aI109
aI1127
asg8
I1827
sa(dp3145
g2
(lp3146
I17760
aI17762
asg4
(lp3147
I17761
asg6
(lp3148
I16508
aI16493
aI28
aI22
aI14
aI16509
aI160
aI25
aI16510
aI42
aI16511
aI2
aI3071
aI6033
aI58
asg8
I1828
sa(dp3149
g2
(lp3150
I17826
aI17827
asg4
(lp3151
I17825
asg6
(lp3152
I1488
aI2
aI891
aI25
aI2483
asg8
I1835
sa(dp3153
g2
(lp3154
I17847
aI17848
aI17849
aI17850
aI17851
asg4
(lp3155
I17846
asg6
(lp3156
I14
aI6315
aI25
aI4327
aI2
aI14
aI18693
aI247
aI12213
asg8
I1838
sa(dp3157
g2
(lp3158
I17917
aI17919
aI17920
aI17921
aI17922
aI17923
asg4
(lp3159
I17918
asg6
(lp3160
I1488
aI2
aI7
aI27170
aI3769
aI7283
asg8
I1843
sa(dp3161
g2
(lp3162
I17924
aI17927
aI17928
aI17929
aI17930
aI17931
aI17932
aI17933
aI17934
aI17935
aI17936
asg4
(lp3163
I17925
aI17926
asg6
(lp3164
I1488
aI2
aI14
aI329
aI42
aI1677
aI8949
aI3198
asg8
I1844
sa(dp3165
g2
(lp3166
sg4
(lp3167
I17939
asg6
(lp3168
I1488
aI2
aI2314
aI26176
aI22
aI5334
aI5335
asg8
I1846
sa(dp3169
g2
(lp3170
I17988
aI17989
aI17990
aI17991
aI17992
asg4
(lp3171
I17987
asg6
(lp3172
I7
aI2213
aI22
aI14
aI16796
aI16797
aI256
aI25
aI16480
aI2
aI10246
aI27246
aI16531
aI209
asg8
I1850
sa(dp3173
g2
(lp3174
I18052
aI18053
aI18054
aI18055
aI18056
aI18057
asg4
(lp3175
I18051
asg6
(lp3176
I16484
aI16485
aI42
aI14
aI16486
aI15940
aI15485
aI22
aI16487
aI2
aI14
aI2220
aI4967
aI22
aI3975
asg8
I1857
sa(dp3177
g2
(lp3178
I18103
aI18104
aI18105
aI18106
aI18107
aI18108
aI18109
aI18110
aI18111
aI18112
aI18113
aI18114
aI18115
aI18116
aI18117
aI18118
aI18119
aI18120
asg4
(lp3179
I18101
aI18102
asg6
(lp3180
I15825
aI1038
aI28
aI963
aI2
aI14
aI7119
aI17072
aI17071
aI869
aI749
asg8
I1865
sa(dp3181
g2
(lp3182
I18122
aI18123
aI18124
aI18125
aI18126
aI18127
asg4
(lp3183
I18121
asg6
(lp3184
I1488
aI2
aI27366
aI27367
aI54
aI27368
asg8
I1866
sa(dp3185
g2
(lp3186
I18129
aI18130
aI18131
aI18132
aI18133
aI18134
aI18135
aI18136
asg4
(lp3187
I18128
asg6
(lp3188
I1488
aI2
aI9111
aI9826
aI6
asg8
I1867
sa(dp3189
g2
(lp3190
I18166
aI18167
aI18168
aI18169
aI18170
aI18171
aI18172
aI18173
asg4
(lp3191
I18165
asg6
(lp3192
I2217
aI2
aI478
aI25
aI10088
aI10089
aI2222
aI480
asg8
I1874
sa(dp3193
g2
(lp3194
I18194
aI18195
aI18196
aI18197
aI18198
aI18199
aI18200
aI18201
aI18202
asg4
(lp3195
I18193
asg6
(lp3196
I1488
aI2
aI14
aI161
aI25
aI14
aI309
aI456
aI2341
aI860
aI6621
asg8
I1877
sa(dp3197
g2
(lp3198
I18217
aI18218
aI18219
aI18220
aI18221
aI18222
aI18223
aI18225
asg4
(lp3199
I18224
asg6
(lp3200
I16150
aI1267
aI2
aI14
aI233
aI708
asg8
I1879
sa(dp3201
g2
(lp3202
I18249
aI18250
aI18251
aI18252
aI18253
aI18254
aI18255
aI18256
aI18257
aI18258
aI18259
asg4
(lp3203
I18248
asg6
(lp3204
I1488
aI2
aI14
aI33
aI25
aI7
aI469
aI15975
aI6
asg8
I1882
sa(dp3205
g2
(lp3206
I18269
aI18270
aI18271
aI18272
asg4
(lp3207
I18268
asg6
(lp3208
I1488
aI2
aI6289
aI14
aI3957
asg8
I1884
sa(dp3209
g2
(lp3210
I18280
aI18282
asg4
(lp3211
I18281
asg6
(lp3212
I16346
aI2626
aI28
aI1776
aI2
aI14
aI2208
aI3191
aI22
aI3058
asg8
I1886
sa(dp3213
g2
(lp3214
I18311
aI18312
aI18314
aI18315
aI18316
aI18317
aI18318
aI18319
aI18320
aI18321
aI18322
aI18323
aI18324
aI18325
aI18326
aI18327
asg4
(lp3215
I18313
asg6
(lp3216
I1488
aI2
aI5573
aI7
aI5544
asg8
I1889
sa(dp3217
g2
(lp3218
I18328
aI18329
aI18330
aI18331
aI18332
aI18333
aI18334
aI18336
aI18337
aI18338
asg4
(lp3219
I18335
asg6
(lp3220
I16198
aI42
aI9483
aI1821
aI2454
aI2
aI14
aI191
aI6097
aI18279
aI1271
aI749
asg8
I1890
sa(dp3221
g2
(lp3222
I18381
aI18382
aI18383
aI18384
aI18385
aI18386
aI18387
aI18388
aI18389
aI18390
aI18391
aI18392
asg4
(lp3223
I18380
asg6
(lp3224
I1488
aI2
aI10538
aI5587
asg8
I1896
sa(dp3225
g2
(lp3226
I18416
aI18418
aI18419
asg4
(lp3227
I18417
asg6
(lp3228
I1488
aI2
aI14
aI161
aI25
aI2867
aI51
aI2429
asg8
I1900
sa(dp3229
g2
(lp3230
I18548
aI18549
aI18550
aI18551
aI18553
asg4
(lp3231
I18552
asg6
(lp3232
I15696
aI15697
aI2
aI14
aI5697
aI25
aI3058
aI966
asg8
I1912
sa(dp3233
g2
(lp3234
I18564
aI18566
aI18567
aI18568
asg4
(lp3235
I18565
asg6
(lp3236
I17580
aI2
aI14
aI27688
aI160
aI4190
asg8
I1914
sa(dp3237
g2
(lp3238
I18628
aI18630
aI18631
aI18632
aI18633
aI18634
aI18635
aI18636
aI18637
aI18638
aI18639
asg4
(lp3239
I18629
asg6
(lp3240
I15156
aI11155
aI16129
aI28
aI16130
aI16131
aI28
aI42
aI16132
aI16130
aI16133
aI2
aI14
aI160
aI25
aI10919
aI248
asg8
I1919
sa(dp3241
g2
(lp3242
I18642
asg4
(lp3243
I18640
aI18641
asg6
(lp3244
I1488
aI2
aI14
aI2271
aI25
aI27728
aI19
asg8
I1920
sa(dp3245
g2
(lp3246
I18643
aI18644
aI18645
aI18646
aI18648
asg4
(lp3247
I18647
asg6
(lp3248
I1488
aI2
aI14
aI1325
aI25
aI14
aI8132
aI12597
asg8
I1921
sa(dp3249
g2
(lp3250
I18684
asg4
(lp3251
I18683
asg6
(lp3252
I14
aI11861
aI25
aI14
aI10511
aI10508
aI22
aI14
aI17268
aI2
aI27765
aI128
aI6
asg8
I1925
sa(dp3253
g2
(lp3254
I18686
aI18687
aI18688
asg4
(lp3255
I18685
asg6
(lp3256
I15828
aI699
aI28
aI1172
aI2
aI137
aI1393
aI27768
aI217
aI781
asg8
I1926
sa(dp3257
g2
(lp3258
I18689
aI18690
aI18691
aI18693
aI18694
aI18695
aI18696
aI18697
aI18698
aI18699
aI18700
aI18701
asg4
(lp3259
I18692
asg6
(lp3260
I17250
aI2
aI498
aI3402
aI1157
asg8
I1927
sa(dp3261
g2
(lp3262
I18713
aI18714
aI18715
aI18716
aI18718
aI18719
aI18720
aI18721
aI18722
aI18723
aI18724
aI18725
aI18726
aI18727
asg4
(lp3263
I18717
asg6
(lp3264
I1488
aI2
aI14
aI9888
aI2057
aI22
aI7
aI27804
aI2365
asg8
I1929
sa(dp3265
g2
(lp3266
I18728
aI18730
aI18731
aI18732
aI18733
aI18734
aI18735
asg4
(lp3267
I18729
asg6
(lp3268
I1488
aI2
aI27814
aI354
aI25
asg8
I1930
sa(dp3269
g2
(lp3270
I18812
aI18813
aI18815
aI18816
aI18817
asg4
(lp3271
I18814
asg6
(lp3272
I1488
aI2
aI27822
aI354
aI25
asg8
I1939
sa(dp3273
g2
(lp3274
I18829
asg4
(lp3275
I18828
asg6
(lp3276
I1488
aI2
aI5683
aI33
aI173
asg8
I1942
sa(dp3277
g2
(lp3278
I18926
aI18927
aI18929
aI18931
aI18932
aI18933
aI18934
aI18935
aI18936
aI18937
aI18938
aI18939
aI18940
aI18941
aI18942
aI18943
asg4
(lp3279
I18928
aI18930
asg6
(lp3280
I1488
aI2
aI9669
aI25499
aI33
aI173
asg8
I1950
sa(dp3281
g2
(lp3282
I18951
aI18952
aI18953
aI18955
aI18956
aI18957
aI18958
asg4
(lp3283
I18954
asg6
(lp3284
I1488
aI2
aI27937
aI746
aI173
asg8
I1952
sa(dp3285
g2
(lp3286
I18974
asg4
(lp3287
I18973
asg6
(lp3288
I1488
aI2
aI27966
aI25
aI14
aI8145
asg8
I1954
sa(dp3289
g2
(lp3290
I19037
aI19039
aI19040
aI19041
aI19042
aI19043
aI19044
aI19045
aI19046
aI19047
aI19048
aI19049
aI19050
aI19051
aI19052
aI19053
asg4
(lp3291
I19038
asg6
(lp3292
I7
aI855
aI25
aI2428
aI1011
aI113
aI16722
aI16723
aI16724
aI2
aI14
aI191
aI153
aI34
aI3577
aI1943
asg8
I1964
sa(dp3293
g2
(lp3294
I19069
aI19070
aI19071
aI19072
aI19073
asg4
(lp3295
I19068
asg6
(lp3296
I1488
aI2
aI4090
aI109
aI7702
asg8
I1966
sa(dp3297
g2
(lp3298
I19093
aI19095
aI19096
aI19097
asg4
(lp3299
I19094
asg6
(lp3300
I1488
aI2
aI14
aI5464
aI25
aI14
aI28051
aI5183
aI6
asg8
I1970
sa(dp3301
g2
(lp3302
I19099
aI19100
asg4
(lp3303
I19098
asg6
(lp3304
I1488
aI2
aI7
aI2549
aI501
aI12726
asg8
I1971
sa(dp3305
g2
(lp3306
I19105
aI19106
aI19108
aI19109
aI19110
aI19111
aI19112
aI19113
aI19114
aI19115
aI19116
aI19117
asg4
(lp3307
I19107
asg6
(lp3308
I1488
aI2
aI14
aI5657
aI161
aI25
aI7
aI6589
aI2843
asg8
I1973
sa(dp3309
g2
(lp3310
I19128
aI19129
aI19130
aI19131
aI19132
aI19133
aI19135
asg4
(lp3311
I19134
asg6
(lp3312
I17029
aI54
aI3375
aI547
aI2747
aI2
aI14
aI13215
aI25
aI4423
aI8084
asg8
I1977
sa(dp3313
g2
(lp3314
I19147
aI19148
aI19149
aI19150
asg4
(lp3315
I19146
asg6
(lp3316
I14
aI2736
aI1526
aI15613
aI2
aI28114
aI128
asg8
I1979
sa(dp3317
g2
(lp3318
I19151
aI19152
aI19153
aI19154
aI19155
aI19157
asg4
(lp3319
I19156
asg6
(lp3320
I1488
aI2
aI28119
aI128
aI28119
aI42
aI28120
asg8
I1980
sa(dp3321
g2
(lp3322
I19159
aI19160
aI19161
asg4
(lp3323
I19158
asg6
(lp3324
I1488
aI2
aI22
aI7
aI380
asg8
I1981
sa(dp3325
g2
(lp3326
I19230
aI19231
aI19233
asg4
(lp3327
I19232
asg6
(lp3328
I1488
aI2
aI14
aI5720
aI173
aI18806
aI940
aI6
asg8
I1988
sa(dp3329
g2
(lp3330
I19234
aI19235
aI19236
aI19237
aI19239
aI19240
aI19241
aI19242
aI19243
aI19244
aI19245
aI19246
aI19247
aI19248
aI19249
asg4
(lp3331
I19238
asg6
(lp3332
I1488
aI2
aI833
aI22
asg8
I1989
sa(dp3333
g2
(lp3334
I19257
aI19258
aI19259
asg4
(lp3335
I19256
asg6
(lp3336
I1488
aI2
aI21021
aI22
aI13189
asg8
I1991
sa(dp3337
g2
(lp3338
I19303
aI19305
aI19306
aI19307
aI19308
aI19309
asg4
(lp3339
I19304
asg6
(lp3340
I1488
aI2
aI14
aI10544
aI28241
aI6184
asg8
I1996
sa(dp3341
g2
(lp3342
I19310
aI19312
aI19313
asg4
(lp3343
I19311
asg6
(lp3344
I1488
aI2
aI1253
aI25
aI5343
aI224
asg8
I1997
sa(dp3345
g2
(lp3346
I19367
aI19368
aI19369
asg4
(lp3347
I19366
asg6
(lp3348
I17028
aI8611
aI2
aI2813
aI28279
aI113
aI8445
aI8446
aI354
aI6
asg8
I2005
sa(dp3349
g2
(lp3350
I19394
aI19395
aI19396
aI19397
aI19398
aI19399
aI19400
aI19401
aI19402
aI19403
aI19404
aI19405
aI19406
aI19407
aI19408
aI19409
aI19410
aI19411
aI19412
aI19413
aI19414
aI19415
aI19416
aI19417
aI19418
asg4
(lp3351
I19393
asg6
(lp3352
I16787
aI19349
aI2
aI14
aI1196
aI37
aI139
aI702
aI703
asg8
I2008
sa(dp3353
g2
(lp3354
I19461
aI19462
aI19463
aI19464
asg4
(lp3355
I19465
asg6
(lp3356
I1488
aI2
aI14
aI5738
aI63
aI25
aI28354
asg8
I2015
sa(dp3357
g2
(lp3358
I19467
aI19468
aI19469
aI19470
aI19471
aI19472
aI19473
aI19474
aI19475
aI19476
aI19477
aI19478
aI19479
aI19480
aI19481
aI19482
asg4
(lp3359
I19466
asg6
(lp3360
I17500
aI28
aI17501
aI2
aI28356
aI128
aI6
asg8
I2016
sa(dp3361
g2
(lp3362
I19497
aI19498
aI19499
aI19500
aI19501
asg4
(lp3363
I19502
asg6
(lp3364
I1488
aI2
aI14
aI5440
aI118
aI22
aI4724
aI27
asg8
I2019
sa(dp3365
g2
(lp3366
I19522
aI19523
aI19524
aI19525
aI19526
asg4
(lp3367
I19521
asg6
(lp3368
I1488
aI2
aI14
aI28391
aI891
aI27
aI6
asg8
I2022
sa(dp3369
g2
(lp3370
I19528
aI19529
aI19530
aI19531
aI19532
aI19533
aI19534
asg4
(lp3371
I19527
asg6
(lp3372
I16225
aI16226
aI16227
aI42
aI16228
aI15694
aI16229
aI2
aI14
aI714
aI14
aI19176
aI22
aI14
aI4749
aI113
aI6
asg8
I2023
sa(dp3373
g2
(lp3374
I19543
aI19545
aI19546
aI19547
aI19548
aI19549
aI19550
aI19551
aI19552
aI19553
aI19554
aI19555
aI19556
aI19557
aI19558
aI19559
aI19560
aI19561
aI19562
asg4
(lp3375
I19544
asg6
(lp3376
I17333
aI7638
aI2
aI14
aI447
aI128
aI14
aI2338
aI447
aI3720
aI6
asg8
I2025
sa(dp3377
g2
(lp3378
I19581
aI19582
aI19583
aI19584
aI19585
aI19586
aI19587
aI19588
aI19589
asg4
(lp3379
I19580
asg6
(lp3380
I1488
aI2
aI151
aI3484
aI773
aI161
asg8
I2028
sa(dp3381
g2
(lp3382
I19614
aI19615
aI19616
aI19617
aI19618
aI19619
aI19620
aI19621
aI19622
aI19623
aI19624
aI19625
aI19626
aI19627
asg4
(lp3383
I19613
asg6
(lp3384
I1488
aI2
aI28470
aI28471
aI3374
asg8
I2032
sa(dp3385
g2
(lp3386
I19633
asg4
(lp3387
I19632
asg6
(lp3388
I1488
aI2
aI28477
aI276
aI2167
asg8
I2034
sa(dp3389
g2
(lp3390
I19665
aI19666
aI19667
aI19668
aI19669
aI19670
aI19671
aI19673
aI19674
aI19675
aI19676
asg4
(lp3391
I19672
asg6
(lp3392
I15805
aI17213
aI64
aI2873
aI17214
aI16060
aI42
aI16060
aI25
aI16808
aI1841
aI190
aI1495
aI4724
aI4027
aI87
aI17215
aI17216
aI28
aI17217
aI16060
aI28
aI17218
aI16060
aI28
aI17219
aI16060
aI28
aI42
aI14
aI16060
aI25
aI16808
aI190
aI42
aI4724
aI28
aI6883
aI28
aI42
aI5497
aI1495
aI4027
aI42
aI4716
aI2938
aI87
aI17220
aI17221
aI66
aI2
aI3571
aI25
aI14
aI4437
asg8
I2038
sa(dp3393
g2
(lp3394
I19678
aI19679
aI19680
aI19681
aI19682
aI19683
aI19684
aI19685
aI19686
aI19687
aI19688
aI19689
aI19690
aI19691
aI19692
aI19693
aI19694
aI19695
aI19696
aI19697
asg4
(lp3395
I19677
asg6
(lp3396
I1488
aI2
aI28557
aI1035
asg8
I2039
sa(dp3397
g2
(lp3398
I19752
asg4
(lp3399
I19751
asg6
(lp3400
I15802
aI5260
aI870
aI6267
aI2
aI28620
aI109
aI15802
aI5260
aI870
aI28621
aI3720
asg8
I2044
sa(dp3401
g2
(lp3402
sg4
(lp3403
I19753
aI19754
asg6
(lp3404
I1488
aI2
aI14
aI161
aI25
aI14
aI717
aI25
aI13780
asg8
I2045
sa(dp3405
g2
(lp3406
I19778
aI19779
aI19780
asg4
(lp3407
I19781
asg6
(lp3408
I1488
aI2
aI3237
aI109
aI1483
aI109
aI161
asg8
I2050
sa(dp3409
g2
(lp3410
I19789
aI19791
aI19792
aI19793
aI19794
aI19795
aI19796
aI19797
aI19798
aI19799
aI19800
aI19801
aI19802
aI19803
aI19804
aI19805
asg4
(lp3411
I19790
asg6
(lp3412
I16143
aI1447
aI2
aI21103
aI14208
aI486
asg8
I2052
sa(dp3413
g2
(lp3414
I19850
aI19851
aI19852
asg4
(lp3415
I19847
aI19848
aI19849
asg6
(lp3416
I1488
aI2
aI14
aI6527
aI25
aI1947
aI10631
aI6
asg8
I2056
sa(dp3417
g2
(lp3418
I19853
aI19855
asg4
(lp3419
I19854
asg6
(lp3420
I14
aI5073
aI521
aI1378
aI22
aI14
aI16122
aI160
aI25
aI18706
aI28
aI42
aI2
aI14
aI2213
aI4587
aI25
aI16974
aI15487
aI2
aI14
aI2208
aI2768
aI480
aI10
aI7
aI665
aI7438
asg8
I2057
sa(dp3421
g2
(lp3422
I19870
aI19871
aI19872
aI19873
aI19874
aI19875
aI19876
aI19877
aI19878
aI19879
aI19880
aI19881
aI19882
aI19883
aI19884
aI19885
aI19886
asg4
(lp3423
I19869
asg6
(lp3424
I1488
aI2
aI14
aI2975
aI25
aI4511
aI4512
asg8
I2060
sa(dp3425
g2
(lp3426
I19912
asg4
(lp3427
I19911
asg6
(lp3428
I1488
aI2
aI14
aI3323
aI173
aI772
asg8
I2064
sa(dp3429
g2
(lp3430
I19941
aI19942
aI19943
aI19944
aI19945
aI19947
aI19948
aI19949
aI19950
aI19951
aI19952
aI19953
aI19954
aI19955
aI19956
asg4
(lp3431
I19946
asg6
(lp3432
I17532
aI672
aI28
aI7
aI256
aI2413
aI7
aI528
aI22
aI8286
aI17504
aI42
aI8785
aI17097
aI2
aI14
aI10471
aI22
aI1620
aI73
asg8
I2068
sa(dp3433
g2
(lp3434
I19957
aI19958
aI19959
aI19960
aI19961
aI19962
aI19963
aI19964
aI19967
aI19968
aI19969
aI19970
aI19971
asg4
(lp3435
I19965
aI19966
asg6
(lp3436
I1488
aI2
aI28761
aI12328
asg8
I2069
sa(dp3437
g2
(lp3438
I19972
aI19974
asg4
(lp3439
I19973
asg6
(lp3440
I1488
aI2
aI187
aI20995
aI354
aI25
asg8
I2070
sa(dp3441
g2
(lp3442
I20065
aI20066
aI20067
aI20068
aI20069
aI20070
aI20071
asg4
(lp3443
I20064
asg6
(lp3444
I22
aI14
aI16796
aI16797
aI256
aI25
aI16480
aI2
aI14
aI28844
aI1416
asg8
I2079
sa(dp3445
g2
(lp3446
I20073
aI20074
aI20075
asg4
(lp3447
I20072
asg6
(lp3448
I1488
aI2
aI14
aI1959
aI25
aI2735
aI870
aI4256
aI282
aI5343
asg8
I2080
sa(dp3449
g2
(lp3450
I20107
aI20108
aI20109
aI20110
aI20111
aI20112
aI20114
aI20115
aI20116
aI20117
aI20118
aI20119
aI20120
aI20121
aI20122
aI20123
asg4
(lp3451
I20113
aI20124
asg6
(lp3452
I1488
aI2
aI22
aI14
aI21401
aI2867
aI477
asg8
I2085
sa(dp3453
g2
(lp3454
I20136
aI20137
aI20138
aI20140
aI20141
aI20142
aI20143
aI20144
aI20145
aI20146
aI20147
aI20148
aI20149
aI20150
aI20151
aI20152
aI20153
aI20154
asg4
(lp3455
I20139
asg6
(lp3456
I57
aI2
aI480
aI22
aI14
aI528
aI2735
aI25
aI16844
aI42
aI481
aI42
aI5599
aI25
aI16845
aI16846
aI16847
aI28
aI16848
aI42
aI17
aI481
aI25
aI16796
aI16846
aI16847
aI2
aI17532
aI2565
asg8
I2087
sa(dp3457
g2
(lp3458
I20168
aI20169
aI20170
aI20171
aI20172
asg4
(lp3459
I20167
asg6
(lp3460
I1488
aI2
aI2289
aI19271
asg8
I2090
sa(dp3461
g2
(lp3462
I20194
aI20195
aI20196
aI20197
aI20198
aI20200
aI20201
asg4
(lp3463
I20199
asg6
(lp3464
I16873
aI28
aI16095
aI2
aI25532
aI498
aI130
aI87
asg8
I2093
sa(dp3465
g2
(lp3466
I20202
aI20204
asg4
(lp3467
I20203
asg6
(lp3468
I1488
aI2
aI4958
aI543
aI22
aI665
asg8
I2094
sa(dp3469
g2
(lp3470
I20221
aI20224
aI20225
aI20226
aI20227
aI20228
asg4
(lp3471
I20222
aI20223
asg6
(lp3472
I536
aI25
aI16799
aI16800
aI87
aI14
aI16060
aI25
aI16686
aI28
aI16801
aI16802
aI2
aI19525
aI3139
asg8
I2099
sa(dp3473
g2
(lp3474
I20242
aI20243
aI20244
aI20246
aI20247
aI20248
aI20249
aI20250
aI20251
aI20252
asg4
(lp3475
I20245
asg6
(lp3476
I1488
aI2
aI29003
aI42
aI358
aI161
asg8
I2102
sa(dp3477
g2
(lp3478
I20279
aI20280
aI20282
aI20283
aI20284
asg4
(lp3479
I20281
asg6
(lp3480
I1488
aI2
aI25409
aI42
aI1815
aI471
asg8
I2106
sa(dp3481
g2
(lp3482
I20296
aI20297
aI20298
aI20299
aI20300
aI20301
aI20302
aI20306
asg4
(lp3483
I20303
aI20304
aI20305
asg6
(lp3484
I1488
aI2
aI7
aI1358
aI373
aI6
asg8
I2109
sa(dp3485
g2
(lp3486
I20314
aI20315
aI20316
aI20317
aI20318
aI20319
aI20321
aI20322
aI20323
aI20324
asg4
(lp3487
I20320
asg6
(lp3488
I1488
aI2
aI14
aI4927
aI870
aI8196
asg8
I2111
sa(dp3489
g2
(lp3490
I20335
aI20336
aI20337
aI20339
aI20340
aI20341
aI20342
aI20343
aI20344
aI20345
aI20346
asg4
(lp3491
I20338
asg6
(lp3492
I260
aI774
aI408
aI2
aI7735
aI2108
aI486
asg8
I2114
sa(dp3493
g2
(lp3494
I20347
aI20350
aI20351
aI20352
aI20353
aI20354
aI20355
aI20356
asg4
(lp3495
I20348
aI20349
asg6
(lp3496
I1488
aI2
aI1921
aI2455
aI3681
asg8
I2115
sa(dp3497
g2
(lp3498
I20358
aI20359
asg4
(lp3499
sg6
(lp3500
I1488
aI2
aI665
aI3184
aI704
aI1805
aI10
asg8
I2117
sa.